(lp0
(dp1
V216
p2
V27
p3
sV217
p4
V3
p5
sV214
p6
V27
p7
sV215
p8
V12
p9
sV212
p10
V12
p11
sV213
p12
V12
p13
sV210
p14
V12
p15
sV211
p16
V23
p17
sV127
p18
V4
p19
sV218
p20
V27
p21
sV219
p22
V16
p23
sV133
p24
g5
sV132
p25
V80
p26
sV131
p27
g19
sV130
p28
g19
sV137
p29
g19
sV136
p30
g5
sV135
p31
V47
p32
sV134
p33
V1
p34
sV95
p35
V20
p36
sV139
p37
g19
sV138
p38
V31
p39
sV225
p40
V7
p41
sV24
p42
V34
p43
sV25
p44
V33
p45
sV26
p46
V21
p47
sV27
p48
V21
p49
sV20
p50
V108
p51
sV21
p52
V33
p53
sV22
p54
V16
p55
sV23
p56
g5
sV223
p57
V27
p58
sV28
p59
g5
sV29
p60
V33
p61
sV222
p62
V16
p63
sV0
p64
g5
sg19
V2
p65
sV8
p66
g5
sV220
p67
V12
p68
sV68
p69
g19
sV120
p70
V31
p71
sV121
p72
g5
sV122
p73
g19
sV123
p74
V31
p75
sV124
p76
g5
sV125
p77
V50
p78
sV265
p79
V32
p80
sV264
p81
V80
p82
sV128
p83
g19
sV129
p84
g19
sV269
p85
g5
sV268
p86
g5
sV69
p87
g19
sV91
p88
g19
sV59
p89
V41
p90
sV58
p91
V59
p92
sV55
p93
V56
p94
sV54
p95
V41
p96
sV57
p97
V41
p98
sV56
p99
g5
sV51
p100
V41
p101
sV50
p102
V33
p103
sV53
p104
V41
p105
sV52
p106
V41
p107
sV63
p108
V31
p109
sV90
p110
V21
p111
sV164
p112
g19
sV93
p113
V33
p114
sV199
p115
V5
p116
sV198
p117
g5
sV147
p118
g5
sV195
p119
V12
p120
sV194
p121
V12
p122
sV197
p123
V48
p124
sV196
p125
g41
sV191
p126
g41
sV190
p127
V16
p128
sV193
p129
V34
p130
sV192
p131
g5
sV115
p132
g5
sV114
p133
V47
p134
sV88
p135
g5
sV116
p136
g5
sV111
p137
g19
sV110
p138
g5
sV113
p139
g19
sV112
p140
g19
sV82
p141
g65
sV83
p142
g65
sV80
p143
V50
p144
sV81
p145
g5
sV119
p146
V29
p147
sV118
p148
g19
sV84
p149
V105
p150
sV85
p151
g65
sV174
p152
V47
p153
sV140
p154
g5
sV173
p155
g116
sV206
p156
V12
p157
sV226
p158
V31
p159
sV172
p160
V32
p161
sg5
V108
p162
sV171
p163
g5
sg41
g5
sV146
p164
g5
sV92
p165
g5
sV170
p166
V24
p167
sV245
p168
V55
p169
sV244
p170
V71
p171
sV247
p172
V55
p173
sV109
p174
V33
p175
sV241
p176
V27
p177
sV240
p178
g116
sV243
p179
V34
p180
sV242
p181
V24
p182
sV102
p183
g19
sV103
p184
V33
p185
sV100
p186
g19
sV101
p187
g5
sV106
p188
V107
p189
sV107
p190
g5
sV104
p191
V33
p192
sV105
p193
g65
sV39
p194
V37
p195
sV38
p196
g5
sV33
p197
V108
p198
sV32
p199
V33
p200
sV31
p201
V33
p202
sV30
p203
V12
p204
sV37
p205
V32
p206
sV108
p207
(lp208
sV35
p209
g19
sV34
p210
V33
p211
sV246
p212
V55
p213
sV94
p214
V97
p215
sV16
p216
V33
p217
sV252
p218
V53
p219
sV176
p220
V34
p221
sV60
p222
V12
p223
sV61
p224
V47
p225
sV258
p226
V32
p227
sV259
p228
V27
p229
sV64
p230
V50
p231
sV65
p232
V14
p233
sV179
p234
g5
sV178
p235
V26
p236
sV177
p237
V12
p238
sV253
p239
V26
p240
sV175
p241
V34
p242
sV251
p243
V20
p244
sV256
p245
V16
p246
sV257
p247
V16
p248
sV254
p249
V53
p250
sV255
p251
V254
p252
sV272
p253
V23
p254
sV249
p255
V16
p256
sV248
p257
V31
p258
sV182
p259
V51
p260
sV183
p261
V27
p262
sV180
p263
V47
p264
sV181
p265
V31
p266
sV167
p267
g41
sV187
p268
V27
p269
sV184
p270
V12
p271
sV6
p272
g41
sV186
p273
V12
p274
sV250
p275
V16
p276
sV189
p277
V32
p278
sV202
p279
g41
sV221
p280
V12
p281
sV97
p282
g5
sV185
p283
V21
p284
sV142
p285
V31
p286
sV99
p287
g116
sV98
p288
V14
p289
sV163
p290
g19
sV168
p291
g41
sV169
p292
V14
p293
sV229
p294
g41
sV228
p295
g41
sV227
p296
g41
sV165
p297
V105
p298
sV166
p299
g19
sV224
p300
V16
p301
sV160
p302
g19
sV161
p303
g19
sV162
p304
g19
sV96
p305
V47
p306
sV11
p307
V14
p308
sV10
p309
V64
p310
sV13
p311
g41
sV12
p312
V33
p313
sV15
p314
V16
p315
sV14
p316
V21
p317
sV66
p318
g65
sV271
p319
V23
p320
sV19
p321
V21
p322
sV18
p323
V11
p324
sV143
p325
g65
sV188
p326
V54
p327
sV117
p328
V109
p329
sV273
p330
V27
p331
sV274
p332
V32
p333
sV17
p334
V31
p335
sV275
p336
V27
p337
sV151
p338
g5
sV150
p339
g41
sV153
p340
V31
p341
sV152
p342
g5
sV155
p343
g5
sV154
p344
g41
sV157
p345
V46
p346
sV156
p347
g5
sV159
p348
g19
sV158
p349
g19
sV62
p350
V33
p351
sV277
p352
V34
p353
sV36
p354
g41
sV278
p355
V24
p356
sV238
p357
g116
sV239
p358
g116
sV67
p359
g19
sV234
p360
g5
sV235
p361
g5
sV236
p362
g116
sV237
p363
g116
sV230
p364
g41
sV231
p365
g41
sV232
p366
V34
p367
sV233
p368
g5
sV48
p369
V50
p370
sV49
p371
V109
p372
sV46
p373
V33
p374
sV86
p375
g5
sV44
p376
g19
sV45
p377
V21
p378
sV42
p379
V41
p380
sV43
p381
g41
sV40
p382
V41
p383
sV87
p384
V20
p385
sg34
V103
p386
sg116
V47
p387
sV9
p388
g41
sV201
p389
V12
p390
sV200
p391
g5
sV203
p392
V12
p393
sV145
p394
g19
sV205
p395
V12
p396
sV204
p397
V12
p398
sV207
p399
V12
p400
sV141
p401
g41
sV209
p402
g5
sV208
p403
V27
p404
sV148
p405
g19
sV149
p406
g5
sV77
p407
V33
p408
sV76
p409
g19
sV75
p410
V31
p411
sV74
p412
g19
sV73
p413
V21
p414
sV72
p415
g65
sV71
p416
g5
sV70
p417
g5
sV79
p418
V109
p419
sV78
p420
V20
p421
sg65
V108
p422
sV263
p423
V27
p424
sV144
p425
g19
sV262
p426
g5
sV261
p427
V23
p428
sV270
p429
g5
sV41
p430
V26
p431
sV89
p432
V31
p433
sV260
p434
V24
p435
sV47
p436
V33
p437
sV276
p438
V27
p439
sV267
p440
V34
p441
sV126
p442
g19
sV266
p443
V34
p444
sa(dp445
g2
V12
p446
sg4
g5
sg6
V27
p447
sg8
V27
p448
sg10
V12
p449
sg12
V12
p450
sg14
V12
p451
sg16
V27
p452
sg18
g19
sg20
V27
p453
sg22
V16
p454
sg24
g5
sg25
g19
sg27
g19
sg28
g19
sg29
g5
sg30
g5
sg31
V50
p455
sg33
g5
sg35
g19
sg37
g19
sg38
V31
p456
sg40
g41
sg42
V31
p457
sg44
V15
p458
sg46
V48
p459
sg48
V48
p460
sg50
g19
sg52
g19
sg54
V27
p461
sg56
g19
sg57
V12
p462
sg59
g5
sg60
g19
sg62
V16
p463
sg64
g5
sg19
V128
p464
sg66
V31
p465
sg67
V27
p466
sg69
g116
sg70
g41
sg72
g19
sg73
g19
sg74
g41
sg76
g5
sg77
V50
p467
sg79
V32
p468
sg81
V80
p469
sg83
(lp470
sg84
g19
sg85
g5
sg86
g5
sg87
g19
sg88
g19
sg89
V58
p471
sg91
V41
p472
sg93
V31
p473
sg95
V41
p474
sg97
V41
p475
sg99
V24
p476
sg100
V41
p477
sg102
g5
sg104
V26
p478
sg106
V41
p479
sg108
V48
p480
sg110
V48
p481
sg112
g19
sg113
g19
sg115
g5
sg117
g5
sg118
g19
sg119
V27
p482
sg121
V27
p483
sg123
V48
p484
sg125
V31
p485
sg126
g41
sg127
V16
p486
sg129
V34
p487
sg131
g5
sg132
g5
sg133
V10
p488
sg135
g19
sg136
g5
sg137
g19
sg138
g5
sg139
g19
sg140
g19
sg141
g19
sg142
g19
sg143
V48
p489
sg145
g5
sg146
g5
sg148
g19
sg149
g19
sg151
g19
sg152
g116
sg154
g5
sg155
g116
sg156
V12
p490
sg158
V31
p491
sg160
V16
p492
sg5
V128
p493
sg163
g5
sg41
g19
sg164
V48
p494
sg165
g5
sg166
V32
p495
sg168
V55
p496
sg170
V234
p497
sg172
V55
p498
sg174
g19
sg176
V27
p499
sg178
g116
sg179
V34
p500
sg181
V24
p501
sg183
g19
sg184
g5
sg186
g19
sg187
V12
p502
sg188
V31
p503
sg190
V12
p504
sg191
g19
sg193
V48
p505
sg194
V32
p506
sg196
V12
p507
sg197
g19
sg199
g5
sg201
V128
p508
sg203
V31
p509
sg205
V32
p510
sg207
V49
p511
sg209
g19
sg210
g5
sg212
V16
p512
sg214
g19
sg216
V12
p513
sg218
V53
p514
sg220
V34
p515
sg222
V12
p516
sg224
V48
p517
sg226
V32
p518
sg228
V27
p519
sg230
g5
sg232
V31
p520
sg234
V15
p521
sg235
V27
p522
sg237
V27
p523
sg239
V26
p524
sg241
V12
p525
sg243
V20
p526
sg245
V16
p527
sg247
V16
p528
sg249
V53
p529
sg251
V254
p530
sg253
V23
p531
sg255
V16
p532
sg257
V31
p533
sg259
V52
p534
sg261
V27
p535
sg263
V20
p536
sg265
V31
p537
sg267
g19
sg268
V27
p538
sg270
V24
p539
sg272
g41
sg273
V27
p540
sg275
V16
p541
sg277
V32
p542
sg279
V12
p543
sg280
V24
p544
sg282
g5
sg283
V10
p545
sg285
V31
p546
sg287
g5
sg288
g19
sg290
g19
sg291
g19
sg292
V14
p547
sg294
g41
sg295
g41
sg296
g41
sg297
g19
sg299
g19
sg300
V24
p548
sg302
g19
sg303
g19
sg304
g19
sg305
g19
sg307
V31
p549
sg309
g19
sg311
V65
p550
sg312
g5
sg314
g5
sg316
V95
p551
sg318
g19
sg319
V32
p552
sg321
g19
sg323
V11
p553
sg325
g19
sg326
V54
p554
sg328
g19
sg330
V27
p555
sg332
V32
p556
sg334
V11
p557
sg336
V27
p558
sg338
g19
sg339
g19
sg340
g19
sg342
V48
p559
sg343
g5
sg344
g19
sg345
V85
p560
sg347
V48
p561
sg348
g19
sg349
g5
sg350
V48
p562
sg352
V34
p563
sg354
g41
sg355
V24
p564
sg357
g116
sg358
g116
sg359
g19
sg360
g5
sg361
g5
sg362
g5
sg363
g116
sg364
g41
sg365
g41
sg366
g116
sg368
g5
sg369
V128
p565
sg371
V81
p566
sg373
g19
sg375
V79
p567
sg376
g19
sg377
g19
sg379
V41
p568
sg381
g19
sg382
V41
p569
sg384
g5
sg34
g116
sg116
g5
sg388
V11
p570
sg389
V12
p571
sg391
g5
sg392
V27
p572
sg394
g19
sg395
V12
p573
sg397
g41
sg399
V12
p574
sg401
g19
sg402
g5
sg403
V27
p575
sg405
g65
sg406
g5
sg407
V48
p576
sg409
g19
sg410
V31
p577
sg412
g41
sg413
g19
sg415
g116
sg416
g116
sg417
g5
sg418
g19
sg420
g19
sg65
g5
sg423
V27
p578
sg425
g19
sg426
g5
sg427
V32
p579
sg429
g5
sg430
V26
p580
sg432
g19
sg434
V16
p581
sg436
V70
p582
sg438
V27
p583
sg440
V34
p584
sg442
g116
sg443
V34
p585
sa(dp586
g2
V12
p587
sg4
V34
p588
sg6
V27
p589
sg8
V27
p590
sg10
V12
p591
sg12
V12
p592
sg14
V27
p593
sg16
V32
p594
sg18
g19
sg20
V12
p595
sg22
V16
p596
sg24
V105
p597
sg25
V105
p598
sg27
g19
sg28
g19
sg29
g116
sg30
g5
sg31
g116
sg33
g19
sg35
V31
p599
sg37
g19
sg38
V31
p600
sg40
g41
sg42
g116
sg44
V24
p601
sg46
V24
p602
sg48
g41
sg50
V105
p603
sg52
g116
sg54
V16
p604
sg56
V47
p605
sg57
V12
p606
sg59
g116
sg60
V47
p607
sg62
V32
p608
sg64
g34
sg19
g116
sg66
g41
sg67
V23
p609
sg69
g19
sg70
g19
sg72
g19
sg73
g19
sg74
g19
sg76
g116
sg77
g116
sg79
V32
p610
sg81
V80
p611
sg83
g19
sg84
g19
sg85
g5
sg86
g5
sg87
V31
p612
sg88
g116
sg89
V41
p613
sg91
V41
p614
sg93
V16
p615
sg95
V188
p616
sg97
V41
p617
sg99
V55
p618
sg100
V41
p619
sg102
g116
sg104
V253
p620
sg106
V41
p621
sg108
g5
sg110
V47
p622
sg112
g19
sg113
g116
sg115
g5
sg117
V12
p623
sg118
g19
sg119
V12
p624
sg121
V12
p625
sg123
V48
p626
sg125
V31
p627
sg126
g41
sg127
V16
p628
sg129
V34
p629
sg131
g5
sg132
g116
sg133
g116
sg135
V15
p630
sg136
V31
p631
sg137
g19
sg138
V79
p632
sg139
g19
sg140
g19
sg141
V47
p633
sg142
g19
sg143
g19
sg145
V79
p634
sg146
g19
sg148
g19
sg149
g19
sg151
g19
sg152
g116
sg154
g19
sg155
g116
sg156
V12
p635
sg158
V31
p636
sg160
V24
p637
sg5
g116
sg163
g5
sg41
g116
sg164
g116
sg165
V105
p638
sg166
V15
p639
sg168
V55
p640
sg170
g5
sg172
V16
p641
sg174
g116
sg176
V27
p642
sg178
g116
sg179
V34
p643
sg181
V24
p644
sg183
g19
sg184
V47
p645
sg186
g19
sg187
g41
sg188
V24
p646
sg190
V15
p647
sg191
g19
sg193
g116
sg194
V37
p648
sg196
V24
p649
sg197
g116
sg199
g116
sg201
g116
sg203
g41
sg205
V38
p650
sg207
g34
sg209
g19
sg210
g116
sg212
V55
p651
sg214
g19
sg216
g116
sg218
V53
p652
sg220
V34
p653
sg222
V12
p654
sg224
g116
sg226
V32
p655
sg228
V27
p656
sg230
g19
sg232
V105
p657
sg234
V24
p658
sg235
V12
p659
sg237
V32
p660
sg239
V26
p661
sg241
V27
p662
sg243
V49
p663
sg245
V16
p664
sg247
V16
p665
sg249
V53
p666
sg251
V254
p667
sg253
V32
p668
sg255
V16
p669
sg257
V31
p670
sg259
V51
p671
sg261
V27
p672
sg263
V47
p673
sg265
V31
p674
sg267
V105
p675
sg268
V27
p676
sg270
V15
p677
sg272
g41
sg273
V27
p678
sg275
V16
p679
sg277
V32
p680
sg279
V12
p681
sg280
V24
p682
sg282
V71
p683
sg283
V21
p684
sg285
g5
sg287
g116
sg288
g116
sg290
g65
sg291
g41
sg292
V31
p685
sg294
g41
sg295
g41
sg296
g41
sg297
g19
sg299
g19
sg300
V15
p686
sg302
g19
sg303
g19
sg304
g19
sg305
V33
p687
sg307
V28
p688
sg309
g116
sg311
g41
sg312
V28
p689
sg314
g116
sg316
V11
p690
sg318
V105
p691
sg319
V32
p692
sg321
g19
sg323
V11
p693
sg325
g19
sg326
V53
p694
sg328
g19
sg330
V27
p695
sg332
V32
p696
sg334
V11
p697
sg336
V27
p698
sg338
g116
sg339
g41
sg340
g116
sg342
g5
sg343
g5
sg344
g19
sg345
g19
sg347
g116
sg348
g19
sg349
g19
sg350
g116
sg352
V34
p699
sg354
g41
sg355
V24
p700
sg357
g116
sg358
g116
sg359
g19
sg360
V71
p701
sg361
g5
sg362
g116
sg363
(lp702
sg364
g41
sg365
V31
p703
sg366
g116
sg368
g116
sg369
g41
sg371
V109
p704
sg373
g116
sg375
V79
p705
sg376
g19
sg377
g116
sg379
V41
p706
sg381
g19
sg382
V41
p707
sg384
g116
sg34
V71
p708
sg116
V237
p709
sg388
V11
p710
sg389
V12
p711
sg391
g5
sg392
V208
p712
sg394
g19
sg395
V12
p713
sg397
V24
p714
sg399
V27
p715
sg401
g19
sg402
V12
p716
sg403
V27
p717
sg405
g19
sg406
g116
sg407
g19
sg409
V105
p718
sg410
g19
sg412
g19
sg413
V105
p719
sg415
g116
sg416
V137
p720
sg417
g116
sg418
g116
sg420
g116
sg65
g19
sg423
V27
p721
sg425
g19
sg426
g5
sg427
V32
p722
sg429
g5
sg430
V26
p723
sg432
V105
p724
sg434
V24
p725
sg436
g116
sg438
V27
p726
sg440
V34
p727
sg442
V46
p728
sg443
V34
p729
sa(dp730
g2
V12
p731
sg4
V12
p732
sg6
V12
p733
sg8
V34
p734
sg10
V12
p735
sg12
V12
p736
sg14
V12
p737
sg16
V27
p738
sg18
g19
sg20
V27
p739
sg22
V16
p740
sg24
V24
p741
sg25
g19
sg27
g19
sg28
g19
sg29
g19
sg30
g116
sg31
V10
p742
sg33
g5
sg35
V27
p743
sg37
g19
sg38
g41
sg40
g41
sg42
V27
p744
sg44
V27
p745
sg46
V177
p746
sg48
V187
p747
sg50
V27
p748
sg52
V12
p749
sg54
V27
p750
sg56
V22
p751
sg57
V12
p752
sg59
V12
p753
sg60
g19
sg62
V12
p754
sg64
g34
sg19
V27
p755
sg66
V27
p756
sg67
V32
p757
sg69
V47
p758
sg70
g41
sg72
g19
sg73
g19
sg74
g41
sg76
V12
p759
sg77
V10
p760
sg79
V32
p761
sg81
V80
p762
sg83
g19
sg84
g19
sg85
g5
sg86
g5
sg87
g19
sg88
V12
p763
sg89
V58
p764
sg91
V41
p765
sg93
V16
p766
sg95
V41
p767
sg97
V41
p768
sg99
V55
p769
sg100
V26
p770
sg102
V27
p771
sg104
V41
p772
sg106
V41
p773
sg108
V12
p774
sg110
V21
p775
sg112
g19
sg113
g65
sg115
g5
sg117
V12
p776
sg118
g5
sg119
V27
p777
sg121
V12
p778
sg123
V48
p779
sg125
g41
sg126
g41
sg127
V16
p780
sg129
V34
p781
sg131
g5
sg132
V12
p782
sg133
V49
p783
sg135
V12
p784
sg136
V12
p785
sg137
g19
sg138
V81
p786
sg139
V12
p787
sg140
g19
sg141
V80
p788
sg142
V16
p789
sg143
V16
p790
sg145
V27
p791
sg146
g19
sg148
g19
sg149
g19
sg151
V29
p792
sg152
V109
p793
sg154
g5
sg155
g116
sg156
V12
p794
sg158
V31
p795
sg160
V16
p796
sg5
V34
p797
sg163
g5
sg41
V12
p798
sg164
V34
p799
sg165
g19
sg166
V38
p800
sg168
V55
p801
sg170
V234
p802
sg172
V55
p803
sg174
V25
p804
sg176
V27
p805
sg178
g116
sg179
V34
p806
sg181
V24
p807
sg183
g19
sg184
g34
sg186
V12
p808
sg187
V12
p809
sg188
V12
p810
sg190
V12
p811
sg191
g19
sg193
V24
p812
sg194
V37
p813
sg196
V12
p814
sg197
V12
p815
sg199
V27
p816
sg201
V12
p817
sg203
V27
p818
sg205
V38
p819
sg207
g5
sg209
g19
sg210
V27
p820
sg212
V55
p821
sg214
g19
sg216
V27
p822
sg218
V53
p823
sg220
V12
p824
sg222
V12
p825
sg224
g19
sg226
V24
p826
sg228
V27
p827
sg230
V50
p828
sg232
V12
p829
sg234
V27
p830
sg235
V12
p831
sg237
V27
p832
sg239
V26
p833
sg241
V27
p834
sg243
V20
p835
sg245
V16
p836
sg247
V16
p837
sg249
V53
p838
sg251
V253
p839
sg253
V23
p840
sg255
V16
p841
sg257
V31
p842
sg259
V51
p843
sg261
V27
p844
sg263
V49
p845
sg265
V31
p846
sg267
g41
sg268
(lp847
sg270
V22
p848
sg272
g41
sg273
V12
p849
sg275
V16
p850
sg277
V32
p851
sg279
V12
p852
sg280
V16
p853
sg282
V24
p854
sg283
V10
p855
sg285
V27
p856
sg287
V48
p857
sg288
g41
sg290
g19
sg291
g41
sg292
V14
p858
sg294
g41
sg295
g41
sg296
g41
sg297
g19
sg299
g19
sg300
V32
p859
sg302
g19
sg303
g19
sg304
g19
sg305
V49
p860
sg307
g66
sg309
V12
p861
sg311
V24
p862
sg312
V27
p863
sg314
V27
p864
sg316
V12
p865
sg318
V15
p866
sg319
V32
p867
sg321
V12
p868
sg323
g66
sg325
g19
sg326
V54
p869
sg328
g19
sg330
V27
p870
sg332
V32
p871
sg334
g41
sg336
V27
p872
sg338
g5
sg339
g41
sg340
g19
sg342
g5
sg343
g116
sg344
g19
sg345
V20
p873
sg347
g116
sg348
g19
sg349
g19
sg350
V48
p874
sg352
V34
p875
sg354
g41
sg355
V24
p876
sg357
g116
sg358
g116
sg359
g19
sg360
g5
sg361
g116
sg362
g116
sg363
g116
sg364
(lp877
sg365
V31
p878
sg366
V34
p879
sg368
g5
sg369
V16
p880
sg371
V27
p881
sg373
V170
p882
sg375
g65
sg376
g19
sg377
V10
p883
sg379
V41
p884
sg381
g41
sg382
V41
p885
sg384
V10
p886
sg34
V16
p887
sg116
V12
p888
sg388
V11
p889
sg389
V12
p890
sg391
g5
sg392
V12
p891
sg394
g19
sg395
V27
p892
sg397
V27
p893
sg399
V27
p894
sg401
g41
sg402
g5
sg403
V12
p895
sg405
g65
sg406
V12
p896
sg407
V29
p897
sg409
g19
sg410
V12
p898
sg412
g41
sg413
g19
sg415
V12
p899
sg416
V34
p900
sg417
V10
p901
sg418
V81
p902
sg420
V97
p903
sg65
V24
p904
sg423
V27
p905
sg425
g19
sg426
g5
sg427
V23
p906
sg429
g5
sg430
V26
p907
sg432
V31
p908
sg434
V24
p909
sg436
V27
p910
sg438
V27
p911
sg440
V34
p912
sg442
V20
p913
sg443
V34
p914
sa(dp915
g2
V27
p916
sg4
V12
p917
sg6
V27
p918
sg8
V27
p919
sg10
V12
p920
sg12
V12
p921
sg14
V12
p922
sg16
V32
p923
sg18
g19
sg20
V27
p924
sg22
V16
p925
sg24
V12
p926
sg25
g19
sg27
g19
sg28
g19
sg29
g5
sg30
g5
sg31
V48
p927
sg33
g5
sg35
V31
p928
sg37
g19
sg38
V31
p929
sg40
g41
sg42
V16
p930
sg44
V16
p931
sg46
V38
p932
sg48
V38
p933
sg50
V14
p934
sg52
V16
p935
sg54
V16
p936
sg56
V15
p937
sg57
V27
p938
sg59
V16
p939
sg60
V65
p940
sg62
V16
p941
sg64
g5
sg19
V30
p942
sg66
V15
p943
sg67
V32
p944
sg69
g19
sg70
g41
sg72
g19
sg73
g19
sg74
g5
sg76
g5
sg77
V10
p945
sg79
V32
p946
sg81
V80
p947
sg83
V31
p948
sg84
g19
sg85
g5
sg86
g5
sg87
g19
sg88
g34
sg89
V58
p949
sg91
V41
p950
sg93
V16
p951
sg95
V188
p952
sg97
V41
p953
sg99
V55
p954
sg100
V26
p955
sg102
g5
sg104
V26
p956
sg106
V51
p957
sg108
V12
p958
sg110
V15
p959
sg112
g19
sg113
g41
sg115
g5
sg117
V12
p960
sg118
g116
sg119
V12
p961
sg121
V12
p962
sg123
V48
p963
sg125
V14
p964
sg126
g41
sg127
V16
p965
sg129
V34
p966
sg131
g5
sg132
g41
sg133
g116
sg135
V107
p967
sg136
g41
sg137
g19
sg138
V24
p968
sg139
g41
sg140
g19
sg141
V49
p969
sg142
V80
p970
sg143
V16
p971
sg145
g19
sg146
g19
sg148
g19
sg149
g5
sg151
g19
sg152
g116
sg154
g19
sg155
g116
sg156
V12
p972
sg158
g41
sg160
V32
p973
sg5
V16
p974
sg163
g5
sg41
V16
p975
sg164
g5
sg165
g41
sg166
V15
p976
sg168
V55
p977
sg170
V234
p978
sg172
V55
p979
sg174
g5
sg176
V27
p980
sg178
g116
sg179
V34
p981
sg181
V24
p982
sg183
g19
sg184
V72
p983
sg186
V31
p984
sg187
V12
p985
sg188
V107
p986
sg190
V16
p987
sg191
g5
sg193
g19
sg194
V37
p988
sg196
V16
p989
sg197
g19
sg199
V16
p990
sg201
V15
p991
sg203
V16
p992
sg205
V32
p993
sg207
g19
sg209
g19
sg210
V25
p994
sg212
V16
p995
sg214
g19
sg216
V249
p996
sg218
V253
p997
sg220
V12
p998
sg222
V16
p999
sg224
V31
p1000
sg226
V32
p1001
sg228
V27
p1002
sg230
V16
p1003
sg232
V24
p1004
sg234
V16
p1005
sg235
V177
p1006
sg237
V179
p1007
sg239
V26
p1008
sg241
V27
p1009
sg243
V20
p1010
sg245
V16
p1011
sg247
V16
p1012
sg249
V53
p1013
sg251
V254
p1014
sg253
V23
p1015
sg255
(lp1016
sg257
V31
p1017
sg259
V52
p1018
sg261
V27
p1019
sg263
V20
p1020
sg265
V31
p1021
sg267
g41
sg268
V27
p1022
sg270
V107
p1023
sg272
g41
sg273
V27
p1024
sg275
V16
p1025
sg277
V32
p1026
sg279
V12
p1027
sg280
V16
p1028
sg282
V15
p1029
sg283
V20
p1030
sg285
V12
p1031
sg287
V48
p1032
sg288
V31
p1033
sg290
g19
sg291
g41
sg292
V14
p1034
sg294
g41
sg295
g41
sg296
g41
sg297
g19
sg299
g19
sg300
V16
p1035
sg302
g19
sg303
g19
sg304
g19
sg305
V33
p1036
sg307
V14
p1037
sg309
V48
p1038
sg311
V15
p1039
sg312
V30
p1040
sg314
V16
p1041
sg316
V16
p1042
sg318
V28
p1043
sg319
V32
p1044
sg321
V28
p1045
sg323
V11
p1046
sg325
g19
sg326
V53
p1047
sg328
g19
sg330
V27
p1048
sg332
V32
p1049
sg334
g41
sg336
V27
p1050
sg338
g41
sg339
g41
sg340
g116
sg342
g5
sg343
V34
p1051
sg344
V31
p1052
sg345
g5
sg347
g116
sg348
g19
sg349
g19
sg350
V48
p1053
sg352
V34
p1054
sg354
g41
sg355
V24
p1055
sg357
g116
sg358
g116
sg359
g19
sg360
g5
sg361
g5
sg362
g5
sg363
g116
sg364
g41
sg365
V31
p1056
sg366
V34
p1057
sg368
g116
sg369
V16
p1058
sg371
V48
p1059
sg373
V14
p1060
sg375
V48
p1061
sg376
g19
sg377
g5
sg379
V41
p1062
sg381
V31
p1063
sg382
(lp1064
sg384
g5
sg34
V28
p1065
sg116
V16
p1066
sg388
V11
p1067
sg389
V12
p1068
sg391
g5
sg392
V12
p1069
sg394
g19
sg395
V27
p1070
sg397
V24
p1071
sg399
V27
p1072
sg401
g41
sg402
V12
p1073
sg403
V27
p1074
sg405
V48
p1075
sg406
g5
sg407
V48
p1076
sg409
g19
sg410
V24
p1077
sg412
g19
sg413
V14
p1078
sg415
V16
p1079
sg416
g34
sg417
g65
sg418
V72
p1080
sg420
g19
sg65
g41
sg423
V27
p1081
sg425
g19
sg426
g5
sg427
V32
p1082
sg429
g5
sg430
V26
p1083
sg432
g19
sg434
V16
p1084
sg436
g19
sg438
V27
p1085
sg440
V34
p1086
sg442
V20
p1087
sg443
V34
p1088
sa(dp1089
g2
V12
p1090
sg4
V12
p1091
sg6
V27
p1092
sg8
V12
p1093
sg10
V12
p1094
sg12
V12
p1095
sg14
V27
p1096
sg16
V32
p1097
sg18
g19
sg20
V27
p1098
sg22
V16
p1099
sg24
V12
p1100
sg25
V105
p1101
sg27
g19
sg28
g19
sg29
g5
sg30
V12
p1102
sg31
g5
sg33
g5
sg35
V31
p1103
sg37
g19
sg38
V31
p1104
sg40
g41
sg42
V12
p1105
sg44
V15
p1106
sg46
V12
p1107
sg48
V12
p1108
sg50
V12
p1109
sg52
V12
p1110
sg54
V15
p1111
sg56
V12
p1112
sg57
V12
p1113
sg59
V11
p1114
sg60
g41
sg62
V16
p1115
sg64
g5
sg19
g41
sg66
V12
p1116
sg67
V23
p1117
sg69
V31
p1118
sg70
V31
p1119
sg72
g19
sg73
g19
sg74
g41
sg76
g5
sg77
V24
p1120
sg79
V32
p1121
sg81
V80
p1122
sg83
g5
sg84
V105
p1123
sg85
g5
sg86
g5
sg87
V31
p1124
sg88
V10
p1125
sg89
V41
p1126
sg91
V59
p1127
sg93
V32
p1128
sg95
V188
p1129
sg97
V41
p1130
sg99
V16
p1131
sg100
V41
p1132
sg102
V12
p1133
sg104
V26
p1134
sg106
V41
p1135
sg108
V12
p1136
sg110
V105
p1137
sg112
g19
sg113
V31
p1138
sg115
g5
sg117
V12
p1139
sg118
g116
sg119
V12
p1140
sg121
V27
p1141
sg123
V48
p1142
sg125
g41
sg126
g41
sg127
V16
p1143
sg129
V34
p1144
sg131
g5
sg132
V12
p1145
sg133
g5
sg135
V12
p1146
sg136
g41
sg137
g19
sg138
V31
p1147
sg139
g41
sg140
g19
sg141
V80
p1148
sg142
g19
sg143
V31
p1149
sg145
V33
p1150
sg146
g19
sg148
g19
sg149
g19
sg151
g41
sg152
V49
p1151
sg154
g41
sg155
g116
sg156
(lp1152
sg158
g41
sg160
V32
p1153
sg5
V12
p1154
sg163
g116
sg41
V12
p1155
sg164
g41
sg165
V105
p1156
sg166
V24
p1157
sg168
V55
p1158
sg170
g5
sg172
V55
p1159
sg174
V110
p1160
sg176
V27
p1161
sg178
g116
sg179
V34
p1162
sg181
V24
p1163
sg183
g19
sg184
g65
sg186
g19
sg187
V12
p1164
sg188
V15
p1165
sg190
V12
p1166
sg191
g5
sg193
g41
sg194
V32
p1167
sg196
V12
p1168
sg197
V12
p1169
sg199
V12
p1170
sg201
V12
p1171
sg203
V12
p1172
sg205
V32
p1173
sg207
g34
sg209
g19
sg210
V15
p1174
sg212
V55
p1175
sg214
g19
sg216
V12
p1176
sg218
V53
p1177
sg220
V12
p1178
sg222
V12
p1179
sg224
V105
p1180
sg226
V32
p1181
sg228
V16
p1182
sg230
V110
p1183
sg232
g41
sg234
V15
p1184
sg235
V177
p1185
sg237
V12
p1186
sg239
V26
p1187
sg241
V27
p1188
sg243
V20
p1189
sg245
V16
p1190
sg247
V16
p1191
sg249
V53
p1192
sg251
V253
p1193
sg253
V23
p1194
sg255
V16
p1195
sg257
V31
p1196
sg259
V51
p1197
sg261
V27
p1198
sg263
V47
p1199
sg265
V31
p1200
sg267
g41
sg268
V27
p1201
sg270
V15
p1202
sg272
g41
sg273
V12
p1203
sg275
V16
p1204
sg277
V32
p1205
sg279
V12
p1206
sg280
V15
p1207
sg282
V12
p1208
sg283
V20
p1209
sg285
V12
p1210
sg287
g41
sg288
V11
p1211
sg290
g65
sg291
g41
sg292
V14
p1212
sg294
g41
sg295
g41
sg296
g41
sg297
g19
sg299
g19
sg300
V24
p1213
sg302
g19
sg303
g19
sg304
g19
sg305
V48
p1214
sg307
V142
p1215
sg309
V12
p1216
sg311
V12
p1217
sg312
V206
p1218
sg314
V12
p1219
sg316
g41
sg318
V12
p1220
sg319
V23
p1221
sg321
V31
p1222
sg323
V11
p1223
sg325
g65
sg326
V53
p1224
sg328
g19
sg330
V27
p1225
sg332
V32
p1226
sg334
V31
p1227
sg336
V27
p1228
sg338
g5
sg339
g41
sg340
V31
p1229
sg342
g5
sg343
g41
sg344
g19
sg345
g5
sg347
g5
sg348
g19
sg349
g41
sg350
V31
p1230
sg352
V34
p1231
sg354
g41
sg355
V24
p1232
sg357
g116
sg358
g116
sg359
g19
sg360
g5
sg361
g116
sg362
g5
sg363
g116
sg364
g41
sg365
V31
p1233
sg366
V34
p1234
sg368
g5
sg369
V72
p1235
sg371
g65
sg373
g5
sg375
V31
p1236
sg376
g19
sg377
g34
sg379
V41
p1237
sg381
g41
sg382
(lp1238
sg384
V12
p1239
sg34
V12
p1240
sg116
V12
p1241
sg388
V31
p1242
sg389
V12
p1243
sg391
g5
sg392
V12
p1244
sg394
g19
sg395
V12
p1245
sg397
V27
p1246
sg399
V12
p1247
sg401
g41
sg402
V12
p1248
sg403
V12
p1249
sg405
V48
p1250
sg406
g5
sg407
V105
p1251
sg409
g41
sg410
V12
p1252
sg412
V105
p1253
sg413
g41
sg415
V12
p1254
sg416
g5
sg417
g5
sg418
g65
sg420
g41
sg65
V12
p1255
sg423
V27
p1256
sg425
g19
sg426
g5
sg427
V32
p1257
sg429
g5
sg430
V26
p1258
sg432
V31
p1259
sg434
V24
p1260
sg436
g41
sg438
V27
p1261
sg440
V34
p1262
sg442
V20
p1263
sg443
V34
p1264
sa(dp1265
g2
V12
p1266
sg4
V34
p1267
sg6
V27
p1268
sg8
V12
p1269
sg10
V12
p1270
sg12
V12
p1271
sg14
V27
p1272
sg16
V32
p1273
sg18
g19
sg20
V27
p1274
sg22
V16
p1275
sg24
V34
p1276
sg25
g19
sg27
g19
sg28
g19
sg29
g19
sg30
V12
p1277
sg31
g5
sg33
V48
p1278
sg35
g41
sg37
g19
sg38
V31
p1279
sg40
g41
sg42
V32
p1280
sg44
V23
p1281
sg46
V27
p1282
sg48
V23
p1283
sg50
g41
sg52
V32
p1284
sg54
V23
p1285
sg56
(lp1286
sg57
V27
p1287
sg59
V12
p1288
sg60
g19
sg62
V32
p1289
sg64
g19
sg19
V23
p1290
sg66
V25
p1291
sg67
V23
p1292
sg69
g41
sg70
g19
sg72
g19
sg73
g19
sg74
g41
sg76
V12
p1293
sg77
g5
sg79
V32
p1294
sg81
V80
p1295
sg83
g19
sg84
g19
sg85
g5
sg86
g5
sg87
g19
sg88
V12
p1296
sg89
V58
p1297
sg91
V41
p1298
sg93
V32
p1299
sg95
V41
p1300
sg97
V41
p1301
sg99
V55
p1302
sg100
V41
p1303
sg102
g5
sg104
V26
p1304
sg106
V41
p1305
sg108
V12
p1306
sg110
V105
p1307
sg112
g19
sg113
g19
sg115
g5
sg117
V12
p1308
sg118
g19
sg119
V12
p1309
sg121
V27
p1310
sg123
V48
p1311
sg125
V31
p1312
sg126
g41
sg127
V16
p1313
sg129
V34
p1314
sg131
g5
sg132
g5
sg133
g5
sg135
V15
p1315
sg136
g41
sg137
g19
sg138
V27
p1316
sg139
V105
p1317
sg140
g19
sg141
V80
p1318
sg142
g41
sg143
g41
sg145
g5
sg146
g19
sg148
g19
sg149
V105
p1319
sg151
g19
sg152
V49
p1320
sg154
g41
sg155
g116
sg156
V12
p1321
sg158
g41
sg160
V12
p1322
sg5
V23
p1323
sg163
g5
sg41
V23
p1324
sg164
V71
p1325
sg165
g19
sg166
V23
p1326
sg168
V55
p1327
sg170
V234
p1328
sg172
V55
p1329
sg174
V23
p1330
sg176
V27
p1331
sg178
g116
sg179
V34
p1332
sg181
V24
p1333
sg183
g19
sg184
g5
sg186
g19
sg187
V27
p1334
sg188
V27
p1335
sg190
V25
p1336
sg191
g19
sg193
V12
p1337
sg194
V37
p1338
sg196
V32
p1339
sg197
V23
p1340
sg199
V23
p1341
sg201
V12
p1342
sg203
V16
p1343
sg205
V32
p1344
sg207
g5
sg209
g19
sg210
V23
p1345
sg212
V55
p1346
sg214
g19
sg216
V32
p1347
sg218
V53
p1348
sg220
V12
p1349
sg222
V12
p1350
sg224
g5
sg226
V32
p1351
sg228
V16
p1352
sg230
V105
p1353
sg232
g41
sg234
V32
p1354
sg235
V26
p1355
sg237
V23
p1356
sg239
V26
p1357
sg241
V27
p1358
sg243
V20
p1359
sg245
V16
p1360
sg247
V16
p1361
sg249
V53
p1362
sg251
V253
p1363
sg253
V23
p1364
sg255
V16
p1365
sg257
V31
p1366
sg259
V52
p1367
sg261
V27
p1368
sg263
V49
p1369
sg265
V31
p1370
sg267
g41
sg268
V27
p1371
sg270
V32
p1372
sg272
g41
sg273
V12
p1373
sg275
V16
p1374
sg277
V32
p1375
sg279
V12
p1376
sg280
V16
p1377
sg282
g5
sg283
V20
p1378
sg285
g41
sg287
g41
sg288
g19
sg290
g65
sg291
g19
sg292
V14
p1379
sg294
g41
sg295
g41
sg296
g41
sg297
g19
sg299
g19
sg300
V32
p1380
sg302
g19
sg303
g19
sg304
g19
sg305
V33
p1381
sg307
V65
p1382
sg309
V12
p1383
sg311
V12
p1384
sg312
V27
p1385
sg314
V23
p1386
sg316
g41
sg318
V12
p1387
sg319
V23
p1388
sg321
V12
p1389
sg323
V15
p1390
sg325
g19
sg326
V54
p1391
sg328
g19
sg330
V27
p1392
sg332
V32
p1393
sg334
V15
p1394
sg336
V27
p1395
sg338
g116
sg339
g41
sg340
g116
sg342
V71
p1396
sg343
g41
sg344
g41
sg345
g19
sg347
g5
sg348
g19
sg349
g19
sg350
g19
sg352
V34
p1397
sg354
g41
sg355
V24
p1398
sg357
g116
sg358
g116
sg359
g19
sg360
g5
sg361
g116
sg362
g5
sg363
g116
sg364
g41
sg365
g41
sg366
V34
p1399
sg368
g5
sg369
g5
sg371
V23
p1400
sg373
g5
sg375
g5
sg376
g19
sg377
g5
sg379
V41
p1401
sg381
g19
sg382
V41
p1402
sg384
g5
sg34
V27
p1403
sg116
V12
p1404
sg388
g41
sg389
V12
p1405
sg391
g5
sg392
V12
p1406
sg394
g19
sg395
V27
p1407
sg397
V27
p1408
sg399
V27
p1409
sg401
V105
p1410
sg402
g5
sg403
V27
p1411
sg405
g65
sg406
g5
sg407
g19
sg409
g41
sg410
V12
p1412
sg412
g19
sg413
g41
sg415
V12
p1413
sg416
g5
sg417
g5
sg418
g5
sg420
g19
sg65
g5
sg423
V27
p1414
sg425
g19
sg426
g5
sg427
V23
p1415
sg429
g5
sg430
V26
p1416
sg432
V105
p1417
sg434
V16
p1418
sg436
V23
p1419
sg438
V27
p1420
sg440
V34
p1421
sg442
g19
sg443
V34
p1422
sa(dp1423
g2
V27
p1424
sg4
g5
sg6
V27
p1425
sg8
V27
p1426
sg10
V12
p1427
sg12
V12
p1428
sg14
V12
p1429
sg16
V23
p1430
sg18
g19
sg20
V12
p1431
sg22
V12
p1432
sg24
g41
sg25
g19
sg27
g19
sg28
g19
sg29
V20
p1433
sg30
g5
sg31
V10
p1434
sg33
g19
sg35
V20
p1435
sg37
g19
sg38
V31
p1436
sg40
g41
sg42
g19
sg44
g41
sg46
g41
sg48
g19
sg50
g19
sg52
V33
p1437
sg54
V27
p1438
sg56
g19
sg57
V27
p1439
sg59
V29
p1440
sg60
g19
sg62
V32
p1441
sg64
g5
sg19
V112
p1442
sg66
V31
p1443
sg67
V32
p1444
sg69
V31
p1445
sg70
g19
sg72
g19
sg73
g19
sg74
g41
sg76
g5
sg77
V47
p1446
sg79
V32
p1447
sg81
V80
p1448
sg83
V48
p1449
sg84
g19
sg85
g5
sg86
V34
p1450
sg87
g19
sg88
g19
sg89
V58
p1451
sg91
V41
p1452
sg93
V24
p1453
sg95
V41
p1454
sg97
V41
p1455
sg99
V16
p1456
sg100
V41
p1457
sg102
V81
p1458
sg104
V26
p1459
sg106
V51
p1460
sg108
g19
sg110
g19
sg112
g19
sg113
g19
sg115
g5
sg117
g5
sg118
g116
sg119
V12
p1461
sg121
V27
p1462
sg123
V48
p1463
sg125
V31
p1464
sg126
g41
sg127
V16
p1465
sg129
V34
p1466
sg131
g5
sg132
V31
p1467
sg133
g19
sg135
g19
sg136
V31
p1468
sg137
g19
sg138
g19
sg139
g5
sg140
(lp1469
sg141
V49
p1470
sg142
V20
p1471
sg143
g19
sg145
g19
sg146
g19
sg148
g19
sg149
V33
p1472
sg151
g19
sg152
V47
p1473
sg154
g5
sg155
g116
sg156
V12
p1474
sg158
V31
p1475
sg160
V32
p1476
sg5
g19
sg163
g5
sg41
g19
sg164
g5
sg165
g19
sg166
V32
p1477
sg168
V55
p1478
sg170
g5
sg172
V32
p1479
sg174
V81
p1480
sg176
V27
p1481
sg178
g116
sg179
V34
p1482
sg181
V24
p1483
sg183
g19
sg184
V47
p1484
sg186
g19
sg187
g41
sg188
V15
p1485
sg190
V88
p1486
sg191
g19
sg193
g41
sg194
V32
p1487
sg196
V27
p1488
sg197
g19
sg199
g19
sg201
g19
sg203
g41
sg205
V32
p1489
sg207
g5
sg209
g19
sg210
g41
sg212
V32
p1490
sg214
g19
sg216
g41
sg218
V253
p1491
sg220
V12
p1492
sg222
V12
p1493
sg224
g19
sg226
V16
p1494
sg228
V27
p1495
sg230
V10
p1496
sg232
g41
sg234
V27
p1497
sg235
V27
p1498
sg237
V27
p1499
sg239
V26
p1500
sg241
V12
p1501
sg243
V49
p1502
sg245
V16
p1503
sg247
V16
p1504
sg249
V255
p1505
sg251
V253
p1506
sg253
V27
p1507
sg255
V16
p1508
sg257
V31
p1509
sg259
V51
p1510
sg261
V27
p1511
sg263
V20
p1512
sg265
V31
p1513
sg267
g41
sg268
V27
p1514
sg270
V22
p1515
sg272
g41
sg273
V27
p1516
sg275
V16
p1517
sg277
V32
p1518
sg279
V12
p1519
sg280
g41
sg282
V20
p1520
sg283
V10
p1521
sg285
V31
p1522
sg287
V31
p1523
sg288
g19
sg290
g65
sg291
g19
sg292
V14
p1524
sg294
g41
sg295
g41
sg296
g41
sg297
g19
sg299
g19
sg300
V27
p1525
sg302
g19
sg303
g19
sg304
g19
sg305
V10
p1526
sg307
V14
p1527
sg309
V81
p1528
sg311
g19
sg312
g19
sg314
g41
sg316
V95
p1529
sg318
g19
sg319
V23
p1530
sg321
g19
sg323
V31
p1531
sg325
g19
sg326
V53
p1532
sg328
g19
sg330
V27
p1533
sg332
V32
p1534
sg334
V65
p1535
sg336
V27
p1536
sg338
g5
sg339
g41
sg340
g19
sg342
g19
sg343
g19
sg344
g41
sg345
V20
p1537
sg347
g19
sg348
g19
sg349
g19
sg350
g19
sg352
V34
p1538
sg354
g41
sg355
V24
p1539
sg357
g116
sg358
g116
sg359
g19
sg360
g5
sg361
g5
sg362
g5
sg363
g116
sg364
g41
sg365
g41
sg366
g116
sg368
g5
sg369
g19
sg371
V20
p1540
sg373
g19
sg375
g19
sg376
g19
sg377
V10
p1541
sg379
V41
p1542
sg381
V31
p1543
sg382
V41
p1544
sg384
g19
sg34
g5
sg116
g19
sg388
V31
p1545
sg389
V12
p1546
sg391
g5
sg392
V12
p1547
sg394
g19
sg395
V12
p1548
sg397
V12
p1549
sg399
V12
p1550
sg401
V31
p1551
sg402
V12
p1552
sg403
V12
p1553
sg405
g65
sg406
g5
sg407
g19
sg409
g19
sg410
g41
sg412
g19
sg413
g19
sg415
V81
p1554
sg416
V20
p1555
sg417
V20
p1556
sg418
g19
sg420
g19
sg65
V81
p1557
sg423
V27
p1558
sg425
g19
sg426
g5
sg427
V32
p1559
sg429
g5
sg430
V27
p1560
sg432
g19
sg434
V24
p1561
sg436
g19
sg438
V27
p1562
sg440
V34
p1563
sg442
V46
p1564
sg443
V34
p1565
sa(dp1566
g2
V12
p1567
sg4
V34
p1568
sg6
V27
p1569
sg8
V27
p1570
sg10
V12
p1571
sg12
V12
p1572
sg14
V27
p1573
sg16
V32
p1574
sg18
g19
sg20
V12
p1575
sg22
V107
p1576
sg24
V12
p1577
sg25
V105
p1578
sg27
g19
sg28
g19
sg29
g5
sg30
V12
p1579
sg31
V48
p1580
sg33
g5
sg35
g41
sg37
g19
sg38
g41
sg40
g41
sg42
V22
p1581
sg44
V16
p1582
sg46
V22
p1583
sg48
V16
p1584
sg50
V12
p1585
sg52
V12
p1586
sg54
(lp1587
sg56
V12
p1588
sg57
V12
p1589
sg59
V16
p1590
sg60
V12
p1591
sg62
V16
p1592
sg64
g34
sg19
V16
p1593
sg66
V16
p1594
sg67
V23
p1595
sg69
g19
sg70
g41
sg72
g19
sg73
g19
sg74
V12
p1596
sg76
V12
p1597
sg77
V50
p1598
sg79
V32
p1599
sg81
V80
p1600
sg83
g5
sg84
g19
sg85
g5
sg86
g5
sg87
V31
p1601
sg88
V12
p1602
sg89
V58
p1603
sg91
V41
p1604
sg93
V16
p1605
sg95
V41
p1606
sg97
V41
p1607
sg99
V16
p1608
sg100
V41
p1609
sg102
V12
p1610
sg104
V26
p1611
sg106
V41
p1612
sg108
g41
sg110
V105
p1613
sg112
g19
sg113
V33
p1614
sg115
g5
sg117
V12
p1615
sg118
g5
sg119
V12
p1616
sg121
V12
p1617
sg123
V48
p1618
sg125
V31
p1619
sg126
g41
sg127
V16
p1620
sg129
V34
p1621
sg131
g5
sg132
g5
sg133
g19
sg135
V15
p1622
sg136
V105
p1623
sg137
g19
sg138
g41
sg139
g41
sg140
g19
sg141
V49
p1624
sg142
V80
p1625
sg143
V72
p1626
sg145
g19
sg146
V12
p1627
sg148
g19
sg149
V105
p1628
sg151
V49
p1629
sg152
g116
sg154
V105
p1630
sg155
g116
sg156
V12
p1631
sg158
V31
p1632
sg160
V32
p1633
sg5
V12
p1634
sg163
V48
p1635
sg41
V15
p1636
sg164
g116
sg165
g41
sg166
V107
p1637
sg168
V55
p1638
sg170
g5
sg172
V55
p1639
sg174
V48
p1640
sg176
V27
p1641
sg178
g116
sg179
V34
p1642
sg181
V24
p1643
sg183
g19
sg184
V110
p1644
sg186
V12
p1645
sg187
V12
p1646
sg188
V22
p1647
sg190
V16
p1648
sg191
V105
p1649
sg193
V12
p1650
sg194
V32
p1651
sg196
V25
p1652
sg197
V12
p1653
sg199
V16
p1654
sg201
V12
p1655
sg203
V15
p1656
sg205
V32
p1657
sg207
g19
sg209
g19
sg210
V12
p1658
sg212
V55
p1659
sg214
g19
sg216
V22
p1660
sg218
V53
p1661
sg220
V12
p1662
sg222
V12
p1663
sg224
V31
p1664
sg226
V16
p1665
sg228
V16
p1666
sg230
V15
p1667
sg232
V16
p1668
sg234
V22
p1669
sg235
V26
p1670
sg237
V15
p1671
sg239
V26
p1672
sg241
V12
p1673
sg243
V20
p1674
sg245
V16
p1675
sg247
V16
p1676
sg249
V53
p1677
sg251
V254
p1678
sg253
V32
p1679
sg255
V16
p1680
sg257
V31
p1681
sg259
V51
p1682
sg261
V27
p1683
sg263
V47
p1684
sg265
V31
p1685
sg267
g41
sg268
V27
p1686
sg270
V22
p1687
sg272
g41
sg273
V12
p1688
sg275
V16
p1689
sg277
V32
p1690
sg279
V12
p1691
sg280
V16
p1692
sg282
V12
p1693
sg283
V78
p1694
sg285
V16
p1695
sg287
g5
sg288
V105
p1696
sg290
g65
sg291
g41
sg292
V75
p1697
sg294
g41
sg295
g41
sg296
g41
sg297
V105
p1698
sg299
g19
sg300
V16
p1699
sg302
g19
sg303
g19
sg304
g19
sg305
V33
p1700
sg307
V75
p1701
sg309
V48
p1702
sg311
V24
p1703
sg312
V22
p1704
sg314
V22
p1705
sg316
g41
sg318
V105
p1706
sg319
V23
p1707
sg321
V15
p1708
sg323
V15
p1709
sg325
g19
sg326
V54
p1710
sg328
g19
sg330
V27
p1711
sg332
V32
p1712
sg334
V11
p1713
sg336
V27
p1714
sg338
g5
sg339
g41
sg340
g19
sg342
g116
sg343
g5
sg344
g19
sg345
V20
p1715
sg347
g5
sg348
g19
sg349
g5
sg350
g34
sg352
V34
p1716
sg354
g41
sg355
V24
p1717
sg357
g116
sg358
g116
sg359
g41
sg360
g116
sg361
g116
sg362
g5
sg363
g116
sg364
g41
sg365
V31
p1718
sg366
V34
p1719
sg368
g5
sg369
V12
p1720
sg371
V22
p1721
sg373
V20
p1722
sg375
V49
p1723
sg376
g19
sg377
V48
p1724
sg379
V41
p1725
sg381
g41
sg382
V41
p1726
sg384
V21
p1727
sg34
V12
p1728
sg116
V12
p1729
sg388
g41
sg389
V12
p1730
sg391
g5
sg392
V12
p1731
sg394
g19
sg395
V12
p1732
sg397
V27
p1733
sg399
V12
p1734
sg401
g41
sg402
V12
p1735
sg403
V12
p1736
sg405
V48
p1737
sg406
g116
sg407
V72
p1738
sg409
V105
p1739
sg410
V12
p1740
sg412
V105
p1741
sg413
g41
sg415
V12
p1742
sg416
V12
p1743
sg417
g34
sg418
V12
p1744
sg420
g19
sg65
V15
p1745
sg423
V27
p1746
sg425
g19
sg426
V34
p1747
sg427
V32
p1748
sg429
g5
sg430
V26
p1749
sg432
V105
p1750
sg434
V16
p1751
sg436
V15
p1752
sg438
V27
p1753
sg440
V34
p1754
sg442
V46
p1755
sg443
V34
p1756
sa(dp1757
g2
V12
p1758
sg4
V34
p1759
sg6
V27
p1760
sg8
V27
p1761
sg10
V12
p1762
sg12
V12
p1763
sg14
V12
p1764
sg16
V32
p1765
sg18
g19
sg20
V27
p1766
sg22
V24
p1767
sg24
g5
sg25
V105
p1768
sg27
g19
sg28
g19
sg29
g5
sg30
g5
sg31
g5
sg33
g5
sg35
g19
sg37
g19
sg38
g19
sg40
g41
sg42
g19
sg44
V16
p1769
sg46
g19
sg48
g5
sg50
g19
sg52
V70
p1770
sg54
V15
p1771
sg56
g5
sg57
V12
p1772
sg59
g19
sg60
g65
sg62
V16
p1773
sg64
g34
sg19
V104
p1774
sg66
g41
sg67
V32
p1775
sg69
g19
sg70
g41
sg72
g19
sg73
g19
sg74
g19
sg76
g5
sg77
V10
p1776
sg79
V32
p1777
sg81
V80
p1778
sg83
g19
sg84
g19
sg85
g5
sg86
V34
p1779
sg87
g19
sg88
g19
sg89
V58
p1780
sg91
V41
p1781
sg93
V15
p1782
sg95
V41
p1783
sg97
V41
p1784
sg99
V24
p1785
sg100
V41
p1786
sg102
g19
sg104
V252
p1787
sg106
V51
p1788
sg108
g5
sg110
g19
sg112
g19
sg113
g65
sg115
g5
sg117
g5
sg118
g19
sg119
V12
p1789
sg121
V12
p1790
sg123
V48
p1791
sg125
V14
p1792
sg126
g41
sg127
V16
p1793
sg129
V34
p1794
sg131
g5
sg132
g5
sg133
V10
p1795
sg135
g5
sg136
g41
sg137
g19
sg138
g19
sg139
g41
sg140
g19
sg141
g19
sg142
g19
sg143
V48
p1796
sg145
g65
sg146
g19
sg148
g19
sg149
g19
sg151
g19
sg152
V49
p1797
sg154
g5
sg155
g116
sg156
V12
p1798
sg158
g41
sg160
V12
p1799
sg5
g19
sg163
g116
sg41
g19
sg164
g5
sg165
g5
sg166
V24
p1800
sg168
V55
p1801
sg170
g5
sg172
V55
p1802
sg174
g19
sg176
V27
p1803
sg178
g116
sg179
V34
p1804
sg181
V24
p1805
sg183
g19
sg184
V110
p1806
sg186
g19
sg187
g5
sg188
V24
p1807
sg190
V88
p1808
sg191
(lp1809
sg193
V100
p1810
sg194
V32
p1811
sg196
V15
p1812
sg197
g19
sg199
g19
sg201
g19
sg203
V31
p1813
sg205
V32
p1814
sg207
g5
sg209
g19
sg210
g19
sg212
V24
p1815
sg214
g19
sg216
g19
sg218
V253
p1816
sg220
V34
p1817
sg222
V12
p1818
sg224
V33
p1819
sg226
V24
p1820
sg228
V27
p1821
sg230
g19
sg232
V14
p1822
sg234
V15
p1823
sg235
V23
p1824
sg237
g5
sg239
V26
p1825
sg241
V34
p1826
sg243
V20
p1827
sg245
V16
p1828
sg247
V16
p1829
sg249
V53
p1830
sg251
V253
p1831
sg253
V23
p1832
sg255
V16
p1833
sg257
V31
p1834
sg259
V52
p1835
sg261
V27
p1836
sg263
V47
p1837
sg265
V31
p1838
sg267
g19
sg268
V27
p1839
sg270
V24
p1840
sg272
g41
sg273
V12
p1841
sg275
V16
p1842
sg277
V32
p1843
sg279
V31
p1844
sg280
V32
p1845
sg282
g19
sg283
V20
p1846
sg285
V31
p1847
sg287
g19
sg288
g65
sg290
g19
sg291
g19
sg292
V14
p1848
sg294
g41
sg295
g41
sg296
g41
sg297
g19
sg299
g19
sg300
V16
p1849
sg302
g19
sg303
g19
sg304
g19
sg305
V49
p1850
sg307
V95
p1851
sg309
g19
sg311
V65
p1852
sg312
g19
sg314
g5
sg316
g19
sg318
g19
sg319
V32
p1853
sg321
g19
sg323
V11
p1854
sg325
g19
sg326
V53
p1855
sg328
g19
sg330
V27
p1856
sg332
V32
p1857
sg334
V31
p1858
sg336
V27
p1859
sg338
g19
sg339
g41
sg340
g19
sg342
g5
sg343
g5
sg344
g19
sg345
g19
sg347
V48
p1860
sg348
g19
sg349
g19
sg350
g19
sg352
V34
p1861
sg354
g41
sg355
V24
p1862
sg357
g116
sg358
g116
sg359
g19
sg360
g5
sg361
g5
sg362
g5
sg363
g116
sg364
g41
sg365
V31
p1863
sg366
g116
sg368
g5
sg369
g19
sg371
V86
p1864
sg373
V86
p1865
sg375
g19
sg376
g19
sg377
V10
p1866
sg379
V41
p1867
sg381
g41
sg382
V41
p1868
sg384
g19
sg34
V10
p1869
sg116
g65
sg388
V31
p1870
sg389
V12
p1871
sg391
g5
sg392
V12
p1872
sg394
g19
sg395
V12
p1873
sg397
V12
p1874
sg399
V12
p1875
sg401
g41
sg402
g5
sg403
V12
p1876
sg405
g65
sg406
g5
sg407
g19
sg409
g19
sg410
g19
sg412
g41
sg413
V31
p1877
sg415
g19
sg416
g19
sg417
g19
sg418
V104
p1878
sg420
V20
p1879
sg65
g19
sg423
V27
p1880
sg425
g19
sg426
g5
sg427
V32
p1881
sg429
g5
sg430
V34
p1882
sg432
g19
sg434
V24
p1883
sg436
g19
sg438
V27
p1884
sg440
V34
p1885
sg442
V20
p1886
sg443
V34
p1887
sa(dp1888
g2
V27
p1889
sg4
V34
p1890
sg6
V27
p1891
sg8
V27
p1892
sg10
V12
p1893
sg12
V12
p1894
sg14
V12
p1895
sg16
V23
p1896
sg18
g19
sg20
V27
p1897
sg22
V16
p1898
sg24
V12
p1899
sg25
g19
sg27
g19
sg28
g19
sg29
V71
p1900
sg30
g5
sg31
V10
p1901
sg33
g116
sg35
V16
p1902
sg37
g19
sg38
g41
sg40
g41
sg42
V16
p1903
sg44
V16
p1904
sg46
V107
p1905
sg48
V259
p1906
sg50
V27
p1907
sg52
V16
p1908
sg54
V16
p1909
sg56
V15
p1910
sg57
V27
p1911
sg59
V16
p1912
sg60
V27
p1913
sg62
V24
p1914
sg64
g65
sg19
V27
p1915
sg66
V16
p1916
sg67
V27
p1917
sg69
g19
sg70
g41
sg72
g5
sg73
g19
sg74
g5
sg76
g5
sg77
V10
p1918
sg79
V32
p1919
sg81
V80
p1920
sg83
g19
sg84
g19
sg85
g5
sg86
g5
sg87
g41
sg88
g41
sg89
V58
p1921
sg91
V41
p1922
sg93
V16
p1923
sg95
V188
p1924
sg97
V41
p1925
sg99
V55
p1926
sg100
V41
p1927
sg102
V16
p1928
sg104
V41
p1929
sg106
V51
p1930
sg108
V71
p1931
sg110
g19
sg112
g19
sg113
V10
p1932
sg115
g5
sg117
V12
p1933
sg118
g116
sg119
V27
p1934
sg121
V12
p1935
sg123
V48
p1936
sg125
V31
p1937
sg126
g41
sg127
V16
p1938
sg129
V34
p1939
sg131
g5
sg132
V12
p1940
sg133
g34
sg135
V27
p1941
sg136
g41
sg137
g19
sg138
g19
sg139
V12
p1942
sg140
g19
sg141
V80
p1943
sg142
V80
p1944
sg143
V16
p1945
sg145
V21
p1946
sg146
g5
sg148
g19
sg149
g19
sg151
V29
p1947
sg152
V49
p1948
sg154
g19
sg155
g116
sg156
V12
p1949
sg158
V31
p1950
sg160
V16
p1951
sg5
V16
p1952
sg163
g5
sg41
V16
p1953
sg164
g5
sg165
g19
sg166
V107
p1954
sg168
V55
p1955
sg170
V234
p1956
sg172
V55
p1957
sg174
V47
p1958
sg176
V27
p1959
sg178
g116
sg179
V34
p1960
sg181
V24
p1961
sg183
g19
sg184
g19
sg186
g19
sg187
V12
p1962
sg188
V15
p1963
sg190
V16
p1964
sg191
g19
sg193
g41
sg194
V32
p1965
sg196
V25
p1966
sg197
V12
p1967
sg199
V16
p1968
sg201
V27
p1969
sg203
V16
p1970
sg205
V32
p1971
sg207
V47
p1972
sg209
g19
sg210
V27
p1973
sg212
V16
p1974
sg214
g19
sg216
V259
p1975
sg218
V53
p1976
sg220
V34
p1977
sg222
V12
p1978
sg224
V47
p1979
sg226
V32
p1980
sg228
(lp1981
sg230
V24
p1982
sg232
g41
sg234
V27
p1983
sg235
V27
p1984
sg237
V24
p1985
sg239
V26
p1986
sg241
V27
p1987
sg243
V20
p1988
sg245
V16
p1989
sg247
V16
p1990
sg249
V53
p1991
sg251
V253
p1992
sg253
V27
p1993
sg255
V16
p1994
sg257
V31
p1995
sg259
V51
p1996
sg261
V27
p1997
sg263
V20
p1998
sg265
V31
p1999
sg267
g41
sg268
V27
p2000
sg270
V22
p2001
sg272
g41
sg273
V27
p2002
sg275
V16
p2003
sg277
V32
p2004
sg279
V12
p2005
sg280
V16
p2006
sg282
V16
p2007
sg283
V21
p2008
sg285
V15
p2009
sg287
g5
sg288
V28
p2010
sg290
g19
sg291
g41
sg292
V14
p2011
sg294
g41
sg295
g41
sg296
g41
sg297
g19
sg299
g19
sg300
V16
p2012
sg302
g19
sg303
g19
sg304
g19
sg305
V49
p2013
sg307
V14
p2014
sg309
V27
p2015
sg311
V24
p2016
sg312
V15
p2017
sg314
V16
p2018
sg316
V25
p2019
sg318
g19
sg319
V23
p2020
sg321
V12
p2021
sg323
V15
p2022
sg325
g19
sg326
V53
p2023
sg328
g19
sg330
V27
p2024
sg332
V32
p2025
sg334
g41
sg336
V27
p2026
sg338
g116
sg339
g19
sg340
g19
sg342
g116
sg343
g5
sg344
g19
sg345
g19
sg347
g5
sg348
g19
sg349
g19
sg350
g5
sg352
V34
p2027
sg354
g41
sg355
V24
p2028
sg357
g116
sg358
g116
sg359
g41
sg360
g5
sg361
g116
sg362
g5
sg363
g116
sg364
(lp2029
sg365
g41
sg366
g116
sg368
g5
sg369
V24
p2030
sg371
V16
p2031
sg373
V20
p2032
sg375
V47
p2033
sg376
g19
sg377
V10
p2034
sg379
V41
p2035
sg381
g41
sg382
V41
p2036
sg384
V27
p2037
sg34
V27
p2038
sg116
g5
sg388
V12
p2039
sg389
V12
p2040
sg391
g5
sg392
V27
p2041
sg394
g19
sg395
V12
p2042
sg397
V27
p2043
sg399
V27
p2044
sg401
g41
sg402
V12
p2045
sg403
V27
p2046
sg405
g65
sg406
g116
sg407
g19
sg409
g19
sg410
V16
p2047
sg412
g41
sg413
g41
sg415
V15
p2048
sg416
V24
p2049
sg417
V15
p2050
sg418
V12
p2051
sg420
g41
sg65
V15
p2052
sg423
V27
p2053
sg425
g19
sg426
g5
sg427
V23
p2054
sg429
g5
sg430
V26
p2055
sg432
g19
sg434
V24
p2056
sg436
V27
p2057
sg438
V27
p2058
sg440
V34
p2059
sg442
V20
p2060
sg443
V34
p2061
sa(dp2062
g2
V27
p2063
sg4
V12
p2064
sg6
V27
p2065
sg8
V12
p2066
sg10
V12
p2067
sg12
V12
p2068
sg14
V34
p2069
sg16
V32
p2070
sg18
g19
sg20
V27
p2071
sg22
V27
p2072
sg24
g5
sg25
g19
sg27
g19
sg28
g19
sg29
g19
sg30
g5
sg31
V48
p2073
sg33
V47
p2074
sg35
V31
p2075
sg37
g19
sg38
g19
sg40
g41
sg42
g5
sg44
g5
sg46
V27
p2076
sg48
g5
sg50
g19
sg52
g19
sg54
V16
p2077
sg56
g5
sg57
V12
p2078
sg59
g5
sg60
g19
sg62
V16
p2079
sg64
g5
sg19
V155
p2080
sg66
V24
p2081
sg67
V32
p2082
sg69
g19
sg70
g19
sg72
g19
sg73
g19
sg74
g5
sg76
g116
sg77
V10
p2083
sg79
V32
p2084
sg81
V80
p2085
sg83
g19
sg84
g19
sg85
g5
sg86
g5
sg87
g19
sg88
V10
p2086
sg89
V58
p2087
sg91
V41
p2088
sg93
g19
sg95
V41
p2089
sg97
V41
p2090
sg99
V24
p2091
sg100
V41
p2092
sg102
g19
sg104
V252
p2093
sg106
V41
p2094
sg108
g5
sg110
V48
p2095
sg112
g19
sg113
g19
sg115
g5
sg117
g5
sg118
g19
sg119
V12
p2096
sg121
V27
p2097
sg123
V48
p2098
sg125
V31
p2099
sg126
g41
sg127
V16
p2100
sg129
V34
p2101
sg131
g5
sg132
g5
sg133
g19
sg135
V24
p2102
sg136
g19
sg137
g19
sg138
g19
sg139
V12
p2103
sg140
g19
sg141
g65
sg142
g19
sg143
g5
sg145
g19
sg146
g5
sg148
g19
sg149
g19
sg151
g65
sg152
g116
sg154
g19
sg155
g116
sg156
V12
p2104
sg158
g41
sg160
V16
p2105
sg5
V155
p2106
sg163
g5
sg41
V98
p2107
sg164
g19
sg165
g65
sg166
V24
p2108
sg168
V55
p2109
sg170
V234
p2110
sg172
V55
p2111
sg174
V79
p2112
sg176
V27
p2113
sg178
g116
sg179
V34
p2114
sg181
V24
p2115
sg183
g19
sg184
g5
sg186
V33
p2116
sg187
V12
p2117
sg188
V72
p2118
sg190
V24
p2119
sg191
g19
sg193
g19
sg194
V32
p2120
sg196
V16
p2121
sg197
g19
sg199
V16
p2122
sg201
V19
p2123
sg203
V24
p2124
sg205
V32
p2125
sg207
g19
sg209
g19
sg210
g5
sg212
V24
p2126
sg214
g19
sg216
g5
sg218
V253
p2127
sg220
V12
p2128
sg222
V12
p2129
sg224
g19
sg226
V16
p2130
sg228
V27
p2131
sg230
g19
sg232
g5
sg234
V27
p2132
sg235
V27
p2133
sg237
V34
p2134
sg239
V26
p2135
sg241
V27
p2136
sg243
V49
p2137
sg245
V16
p2138
sg247
V16
p2139
sg249
V255
p2140
sg251
V253
p2141
sg253
V27
p2142
sg255
V16
p2143
sg257
V31
p2144
sg259
V51
p2145
sg261
V27
p2146
sg263
V20
p2147
sg265
V31
p2148
sg267
g41
sg268
V27
p2149
sg270
V24
p2150
sg272
g41
sg273
V34
p2151
sg275
V16
p2152
sg277
V32
p2153
sg279
V12
p2154
sg280
V16
p2155
sg282
g19
sg283
V20
p2156
sg285
g19
sg287
g5
sg288
g5
sg290
g19
sg291
g41
sg292
V65
p2157
sg294
g41
sg295
g41
sg296
g41
sg297
V105
p2158
sg299
g19
sg300
V16
p2159
sg302
g19
sg303
g19
sg304
g19
sg305
g19
sg307
V28
p2160
sg309
g5
sg311
V11
p2161
sg312
g5
sg314
g5
sg316
V29
p2162
sg318
g19
sg319
V32
p2163
sg321
g5
sg323
V11
p2164
sg325
g19
sg326
V54
p2165
sg328
g19
sg330
V27
p2166
sg332
V32
p2167
sg334
V11
p2168
sg336
V27
p2169
sg338
g5
sg339
g19
sg340
g19
sg342
g5
sg343
(lp2170
sg344
g19
sg345
g5
sg347
V48
p2171
sg348
g19
sg349
g19
sg350
g19
sg352
V34
p2172
sg354
g41
sg355
V24
p2173
sg357
g116
sg358
g116
sg359
g19
sg360
g116
sg361
g5
sg362
g5
sg363
g116
sg364
g41
sg365
g41
sg366
g116
sg368
g5
sg369
g5
sg371
g19
sg373
g5
sg375
g19
sg376
g19
sg377
g19
sg379
V41
p2174
sg381
g19
sg382
V41
p2175
sg384
g5
sg34
g5
sg116
g5
sg388
g41
sg389
V12
p2176
sg391
g5
sg392
V27
p2177
sg394
g19
sg395
V12
p2178
sg397
V12
p2179
sg399
V12
p2180
sg401
g41
sg402
V12
p2181
sg403
V27
p2182
sg405
g116
sg406
g5
sg407
V72
p2183
sg409
g19
sg410
g5
sg412
g19
sg413
g19
sg415
g5
sg416
g5
sg417
g34
sg418
g5
sg420
g19
sg65
g19
sg423
V27
p2184
sg425
g19
sg426
g5
sg427
V32
p2185
sg429
g5
sg430
V34
p2186
sg432
g19
sg434
V16
p2187
sg436
g19
sg438
V27
p2188
sg440
V34
p2189
sg442
g19
sg443
V34
p2190
sa(dp2191
g2
V27
p2192
sg4
V34
p2193
sg6
V12
p2194
sg8
V12
p2195
sg10
V12
p2196
sg12
V12
p2197
sg14
V12
p2198
sg16
V32
p2199
sg18
g19
sg20
V27
p2200
sg22
V12
p2201
sg24
g19
sg25
g19
sg27
g19
sg28
g19
sg29
g19
sg30
g5
sg31
g19
sg33
V33
p2202
sg35
g19
sg37
g19
sg38
V31
p2203
sg40
g41
sg42
g19
sg44
g19
sg46
g19
sg48
V21
p2204
sg50
g19
sg52
V33
p2205
sg54
V33
p2206
sg56
V26
p2207
sg57
V12
p2208
sg59
g19
sg60
g19
sg62
V32
p2209
sg64
g34
sg19
V33
p2210
sg66
g41
sg67
V23
p2211
sg69
g19
sg70
V31
p2212
sg72
g19
sg73
g19
sg74
g19
sg76
g5
sg77
g19
sg79
V32
p2213
sg81
V80
p2214
sg83
g5
sg84
g19
sg85
g5
sg86
g5
sg87
g19
sg88
V48
p2215
sg89
V58
p2216
sg91
V41
p2217
sg93
V56
p2218
sg95
V188
p2219
sg97
V41
p2220
sg99
g5
sg100
V41
p2221
sg102
V33
p2222
sg104
V26
p2223
sg106
V41
p2224
sg108
g19
sg110
V48
p2225
sg112
g19
sg113
V33
p2226
sg115
g116
sg117
V12
p2227
sg118
g116
sg119
V12
p2228
sg121
V12
p2229
sg123
V48
p2230
sg125
V31
p2231
sg126
g41
sg127
V16
p2232
sg129
V34
p2233
sg131
g5
sg132
g5
sg133
V10
p2234
sg135
V15
p2235
sg136
g41
sg137
g19
sg138
g19
sg139
g19
sg140
g19
sg141
V49
p2236
sg142
V80
p2237
sg143
g19
sg145
g19
sg146
g19
sg148
g19
sg149
g19
sg151
g19
sg152
V49
p2238
sg154
g5
sg155
g116
sg156
V12
p2239
sg158
g41
sg160
V32
p2240
sg5
V33
p2241
sg163
g116
sg41
V33
p2242
sg164
g19
sg165
g65
sg166
V22
p2243
sg168
V55
p2244
sg170
g5
sg172
V16
p2245
sg174
V33
p2246
sg176
V27
p2247
sg178
g116
sg179
V34
p2248
sg181
V24
p2249
sg183
g19
sg184
V33
p2250
sg186
g19
sg187
g19
sg188
V22
p2251
sg190
V88
p2252
sg191
V33
p2253
sg193
g19
sg194
V32
p2254
sg196
g41
sg197
(lp2255
sg199
V33
p2256
sg201
V95
p2257
sg203
g5
sg205
V32
p2258
sg207
g19
sg209
g19
sg210
g5
sg212
V56
p2259
sg214
g19
sg216
g5
sg218
V53
p2260
sg220
V34
p2261
sg222
V12
p2262
sg224
g19
sg226
V32
p2263
sg228
V27
p2264
sg230
g19
sg232
g41
sg234
g5
sg235
V27
p2265
sg237
g5
sg239
V255
p2266
sg241
V27
p2267
sg243
V49
p2268
sg245
V16
p2269
sg247
V16
p2270
sg249
V53
p2271
sg251
V254
p2272
sg253
V23
p2273
sg255
V16
p2274
sg257
V31
p2275
sg259
V51
p2276
sg261
V27
p2277
sg263
V49
p2278
sg265
V31
p2279
sg267
g19
sg268
V27
p2280
sg270
g41
sg272
g41
sg273
V12
p2281
sg275
V16
p2282
sg277
V32
p2283
sg279
V31
p2284
sg280
g41
sg282
g19
sg283
V20
p2285
sg285
g41
sg287
g19
sg288
g41
sg290
g19
sg291
g19
sg292
V14
p2286
sg294
g41
sg295
g41
sg296
g41
sg297
g19
sg299
g19
sg300
V15
p2287
sg302
g19
sg303
g19
sg304
g19
sg305
g5
sg307
V66
p2288
sg309
g19
sg311
g19
sg312
V63
p2289
sg314
g19
sg316
V46
p2290
sg318
g19
sg319
V32
p2291
sg321
g5
sg323
V31
p2292
sg325
g19
sg326
V53
p2293
sg328
g19
sg330
V27
p2294
sg332
V32
p2295
sg334
V31
p2296
sg336
V27
p2297
sg338
g19
sg339
g19
sg340
g116
sg342
g5
sg343
g5
sg344
g19
sg345
g19
sg347
g19
sg348
g19
sg349
g19
sg350
g19
sg352
V34
p2298
sg354
g41
sg355
V24
p2299
sg357
g116
sg358
g116
sg359
g19
sg360
g5
sg361
g5
sg362
g5
sg363
g116
sg364
g41
sg365
V31
p2300
sg366
g116
sg368
g116
sg369
g19
sg371
V86
p2301
sg373
g19
sg375
g19
sg376
g19
sg377
V21
p2302
sg379
V41
p2303
sg381
g19
sg382
(lp2304
sg384
V48
p2305
sg34
V47
p2306
sg116
V21
p2307
sg388
V31
p2308
sg389
V12
p2309
sg391
g5
sg392
V12
p2310
sg394
g19
sg395
V12
p2311
sg397
g41
sg399
V12
p2312
sg401
g19
sg402
g5
sg403
V203
p2313
sg405
V33
p2314
sg406
g5
sg407
V33
p2315
sg409
g19
sg410
g19
sg412
g19
sg413
g19
sg415
V21
p2316
sg416
g19
sg417
g19
sg418
g19
sg420
g19
sg65
V33
p2317
sg423
V27
p2318
sg425
V48
p2319
sg426
g5
sg427
V23
p2320
sg429
g5
sg430
V26
p2321
sg432
g19
sg434
V24
p2322
sg436
V33
p2323
sg438
V27
p2324
sg440
V34
p2325
sg442
g19
sg443
V34
p2326
sa(dp2327
g2
V27
p2328
sg4
V12
p2329
sg6
V27
p2330
sg8
V27
p2331
sg10
V12
p2332
sg12
V12
p2333
sg14
V27
p2334
sg16
V12
p2335
sg18
g19
sg20
V27
p2336
sg22
V24
p2337
sg24
V31
p2338
sg25
g19
sg27
g19
sg28
g19
sg29
g5
sg30
g19
sg31
g65
sg33
g19
sg35
V31
p2339
sg37
g19
sg38
V31
p2340
sg40
g41
sg42
V278
p2341
sg44
V24
p2342
sg46
V24
p2343
sg48
V24
p2344
sg50
V21
p2345
sg52
V24
p2346
sg54
V24
p2347
sg56
V24
p2348
sg57
V12
p2349
sg59
V24
p2350
sg60
V24
p2351
sg62
V32
p2352
sg64
g5
sg19
V24
p2353
sg66
V24
p2354
sg67
V32
p2355
sg69
V31
p2356
sg70
V31
p2357
sg72
g19
sg73
g19
sg74
g41
sg76
V34
p2358
sg77
V21
p2359
sg79
V32
p2360
sg81
V80
p2361
sg83
V31
p2362
sg84
g19
sg85
g5
sg86
g5
sg87
V31
p2363
sg88
g19
sg89
V58
p2364
sg91
V41
p2365
sg93
V16
p2366
sg95
V188
p2367
sg97
V41
p2368
sg99
V55
p2369
sg100
V26
p2370
sg102
g19
sg104
V253
p2371
sg106
V51
p2372
sg108
V34
p2373
sg110
g41
sg112
g19
sg113
V21
p2374
sg115
g116
sg117
V34
p2375
sg118
V34
p2376
sg119
V12
p2377
sg121
V12
p2378
sg123
V48
p2379
sg125
g41
sg126
g41
sg127
V16
p2380
sg129
V34
p2381
sg131
g5
sg132
V31
p2382
sg133
V49
p2383
sg135
V24
p2384
sg136
g41
sg137
g19
sg138
V31
p2385
sg139
g41
sg140
g19
sg141
V49
p2386
sg142
V20
p2387
sg143
V31
p2388
sg145
V12
p2389
sg146
g116
sg148
g19
sg149
g19
sg151
g65
sg152
V109
p2390
sg154
g116
sg155
g116
sg156
g41
sg158
V31
p2391
sg160
V24
p2392
sg5
V24
p2393
sg163
V34
p2394
sg41
V24
p2395
sg164
g41
sg165
V31
p2396
sg166
V24
p2397
sg168
V55
p2398
sg170
g5
sg172
V32
p2399
sg174
V34
p2400
sg176
V27
p2401
sg178
g116
sg179
V34
p2402
sg181
V24
p2403
sg183
g19
sg184
V34
p2404
sg186
g19
sg187
V24
p2405
sg188
V24
p2406
sg190
V24
p2407
sg191
V31
p2408
sg193
g41
sg194
V32
p2409
sg196
V15
p2410
sg197
V21
p2411
sg199
V24
p2412
sg201
V24
p2413
sg203
V24
p2414
sg205
V32
p2415
sg207
g19
sg209
g19
sg210
V24
p2416
sg212
V16
p2417
sg214
g19
sg216
V24
p2418
sg218
V53
p2419
sg220
V12
p2420
sg222
V12
p2421
sg224
g41
sg226
V24
p2422
sg228
V16
p2423
sg230
V21
p2424
sg232
V24
p2425
sg234
V24
p2426
sg235
V22
p2427
sg237
V179
p2428
sg239
V26
p2429
sg241
V27
p2430
sg243
V20
p2431
sg245
V16
p2432
sg247
V16
p2433
sg249
V53
p2434
sg251
V253
p2435
sg253
V23
p2436
sg255
V16
p2437
sg257
V31
p2438
sg259
V52
p2439
sg261
V27
p2440
sg263
V47
p2441
sg265
V31
p2442
sg267
g41
sg268
V27
p2443
sg270
V24
p2444
sg272
g41
sg273
V12
p2445
sg275
V16
p2446
sg277
V32
p2447
sg279
V12
p2448
sg280
V24
p2449
sg282
V21
p2450
sg283
V15
p2451
sg285
g41
sg287
g41
sg288
g41
sg290
g65
sg291
g19
sg292
V14
p2452
sg294
g41
sg295
g41
sg296
g41
sg297
g19
sg299
g19
sg300
V24
p2453
sg302
g19
sg303
g19
sg304
g19
sg305
V33
p2454
sg307
V31
p2455
sg309
V24
p2456
sg311
V24
p2457
sg312
V24
p2458
sg314
V24
p2459
sg316
V25
p2460
sg318
g41
sg319
V32
p2461
sg321
V21
p2462
sg323
V31
p2463
sg325
g19
sg326
V53
p2464
sg328
g19
sg330
V27
p2465
sg332
V32
p2466
sg334
V11
p2467
sg336
V27
p2468
sg338
g5
sg339
g41
sg340
g19
sg342
V71
p2469
sg343
g5
sg344
V31
p2470
sg345
V46
p2471
sg347
g5
sg348
g19
sg349
g19
sg350
g19
sg352
V34
p2472
sg354
g41
sg355
(lp2473
sg357
g116
sg358
g116
sg359
g41
sg360
V34
p2474
sg361
g5
sg362
g116
sg363
g116
sg364
(lp2475
sg365
V31
p2476
sg366
g116
sg368
g116
sg369
g41
sg371
V24
p2477
sg373
V24
p2478
sg375
g65
sg376
g19
sg377
g65
sg379
V41
p2479
sg381
g41
sg382
V41
p2480
sg384
V34
p2481
sg34
V21
p2482
sg116
V24
p2483
sg388
g41
sg389
V24
p2484
sg391
g5
sg392
V12
p2485
sg394
g19
sg395
g5
sg397
V12
p2486
sg399
V12
p2487
sg401
g41
sg402
V12
p2488
sg403
V12
p2489
sg405
g5
sg406
V12
p2490
sg407
V15
p2491
sg409
V31
p2492
sg410
V25
p2493
sg412
g41
sg413
V21
p2494
sg415
V24
p2495
sg416
V34
p2496
sg417
V21
p2497
sg418
V34
p2498
sg420
g19
sg65
V24
p2499
sg423
V27
p2500
sg425
g19
sg426
g5
sg427
V32
p2501
sg429
g5
sg430
V26
p2502
sg432
g41
sg434
V24
p2503
sg436
g65
sg438
V27
p2504
sg440
(lp2505
sg442
g116
sg443
V34
p2506
sa(dp2507
g2
V12
p2508
sg4
V12
p2509
sg6
V27
p2510
sg8
V27
p2511
sg10
V12
p2512
sg12
V12
p2513
sg14
V12
p2514
sg16
V23
p2515
sg18
g19
sg20
V27
p2516
sg22
V16
p2517
sg24
g19
sg25
V105
p2518
sg27
g19
sg28
g19
sg29
g19
sg30
g19
sg31
V50
p2519
sg33
g34
sg35
g19
sg37
g19
sg38
g19
sg40
g41
sg42
g19
sg44
g19
sg46
g19
sg48
V12
p2520
sg50
g19
sg52
V81
p2521
sg54
V15
p2522
sg56
g19
sg57
V12
p2523
sg59
V90
p2524
sg60
g19
sg62
V16
p2525
sg64
g34
sg19
V120
p2526
sg66
V31
p2527
sg67
V23
p2528
sg69
g19
sg70
(lp2529
sg72
g19
sg73
g19
sg74
g19
sg76
V48
p2530
sg77
V10
p2531
sg79
V32
p2532
sg81
V80
p2533
sg83
g19
sg84
g19
sg85
g5
sg86
g5
sg87
g19
sg88
g19
sg89
V58
p2534
sg91
V41
p2535
sg93
V56
p2536
sg95
V41
p2537
sg97
V41
p2538
sg99
V24
p2539
sg100
V41
p2540
sg102
g19
sg104
V26
p2541
sg106
V51
p2542
sg108
g19
sg110
V48
p2543
sg112
g19
sg113
g19
sg115
g5
sg117
V34
p2544
sg118
g116
sg119
V12
p2545
sg121
V12
p2546
sg123
V48
p2547
sg125
g41
sg126
g41
sg127
V16
p2548
sg129
V34
p2549
sg131
g5
sg132
g19
sg133
V47
p2550
sg135
g41
sg136
g41
sg137
g19
sg138
V48
p2551
sg139
g19
sg140
g19
sg141
g19
sg142
g19
sg143
g19
sg145
g19
sg146
g19
sg148
g19
sg149
g19
sg151
g19
sg152
V109
p2552
sg154
g116
sg155
g116
sg156
V12
p2553
sg158
V31
p2554
sg160
V32
p2555
sg5
g19
sg163
g116
sg41
g19
sg164
g116
sg165
g19
sg166
V27
p2556
sg168
V55
p2557
sg170
g5
sg172
V55
p2558
sg174
g19
sg176
V27
p2559
sg178
g116
sg179
V34
p2560
sg181
V24
p2561
sg183
g19
sg184
g19
sg186
g19
sg187
V12
p2562
sg188
V72
p2563
sg190
V25
p2564
sg191
g19
sg193
g19
sg194
V32
p2565
sg196
g19
sg197
g19
sg199
g19
sg201
g19
sg203
g19
sg205
V32
p2566
sg207
g19
sg209
g19
sg210
g19
sg212
V24
p2567
sg214
g19
sg216
V25
p2568
sg218
V253
p2569
sg220
V34
p2570
sg222
V12
p2571
sg224
g19
sg226
V24
p2572
sg228
V16
p2573
sg230
g19
sg232
V31
p2574
sg234
V15
p2575
sg235
V26
p2576
sg237
V15
p2577
sg239
V26
p2578
sg241
V12
p2579
sg243
V20
p2580
sg245
V16
p2581
sg247
V16
p2582
sg249
V53
p2583
sg251
V254
p2584
sg253
V23
p2585
sg255
V16
p2586
sg257
V31
p2587
sg259
V51
p2588
sg261
V27
p2589
sg263
V47
p2590
sg265
V31
p2591
sg267
g19
sg268
V27
p2592
sg270
V24
p2593
sg272
g41
sg273
V34
p2594
sg275
V16
p2595
sg277
V32
p2596
sg279
V12
p2597
sg280
V12
p2598
sg282
g19
sg283
V10
p2599
sg285
g19
sg287
g19
sg288
g41
sg290
g19
sg291
g41
sg292
V65
p2600
sg294
g41
sg295
g41
sg296
g41
sg297
g19
sg299
g19
sg300
V15
p2601
sg302
g19
sg303
g19
sg304
g19
sg305
g19
sg307
V142
p2602
sg309
g19
sg311
g41
sg312
g19
sg314
g19
sg316
V29
p2603
sg318
g19
sg319
V32
p2604
sg321
g19
sg323
V15
p2605
sg325
g19
sg326
V54
p2606
sg328
g19
sg330
V27
p2607
sg332
V32
p2608
sg334
V31
p2609
sg336
V27
p2610
sg338
g19
sg339
g41
sg340
g19
sg342
V71
p2611
sg343
g5
sg344
g41
sg345
g19
sg347
V48
p2612
sg348
g19
sg349
g19
sg350
g19
sg352
V34
p2613
sg354
g41
sg355
V24
p2614
sg357
g116
sg358
g116
sg359
g19
sg360
g5
sg361
g116
sg362
V34
p2615
sg363
g116
sg364
g41
sg365
V31
p2616
sg366
g116
sg368
g5
sg369
g19
sg371
V81
p2617
sg373
g19
sg375
g19
sg376
g19
sg377
V46
p2618
sg379
V41
p2619
sg381
g19
sg382
V41
p2620
sg384
g19
sg34
V81
p2621
sg116
g19
sg388
g41
sg389
V12
p2622
sg391
g5
sg392
V27
p2623
sg394
g19
sg395
V12
p2624
sg397
g41
sg399
V12
p2625
sg401
g19
sg402
V12
p2626
sg403
V12
p2627
sg405
g19
sg406
g5
sg407
g19
sg409
g19
sg410
g19
sg412
g19
sg413
g19
sg415
g19
sg416
g19
sg417
g19
sg418
g19
sg420
g19
sg65
g19
sg423
V27
p2628
sg425
V48
p2629
sg426
g5
sg427
V32
p2630
sg429
g5
sg430
V34
p2631
sg432
g19
sg434
V16
p2632
sg436
g19
sg438
V27
p2633
sg440
V34
p2634
sg442
V46
p2635
sg443
V34
p2636
sa(dp2637
g2
V27
p2638
sg4
V34
p2639
sg6
V12
p2640
sg8
V27
p2641
sg10
V12
p2642
sg12
V12
p2643
sg14
V34
p2644
sg16
V12
p2645
sg18
g19
sg20
V12
p2646
sg22
V24
p2647
sg24
g19
sg25
g19
sg27
g19
sg28
g19
sg29
g19
sg30
g19
sg31
V46
p2648
sg33
V20
p2649
sg35
g19
sg37
g19
sg38
g19
sg40
g41
sg42
g19
sg44
V12
p2650
sg46
V12
p2651
sg48
V63
p2652
sg50
g19
sg52
g19
sg54
V15
p2653
sg56
g41
sg57
V12
p2654
sg59
g19
sg60
g19
sg62
V12
p2655
sg64
g19
sg19
V159
p2656
sg66
V31
p2657
sg67
V23
p2658
sg69
g41
sg70
g19
sg72
g19
sg73
g19
sg74
g5
sg76
g5
sg77
V29
p2659
sg79
V32
p2660
sg81
V80
p2661
sg83
g19
sg84
g19
sg85
g5
sg86
V34
p2662
sg87
g19
sg88
g19
sg89
V41
p2663
sg91
V41
p2664
sg93
V15
p2665
sg95
V41
p2666
sg97
V41
p2667
sg99
V55
p2668
sg100
V41
p2669
sg102
g19
sg104
V26
p2670
sg106
V41
p2671
sg108
g19
sg110
g5
sg112
g19
sg113
g19
sg115
g5
sg117
V34
p2672
sg118
g116
sg119
V12
p2673
sg121
V27
p2674
sg123
V48
p2675
sg125
V31
p2676
sg126
g41
sg127
V16
p2677
sg129
V34
p2678
sg131
g5
sg132
g19
sg133
V20
p2679
sg135
V12
p2680
sg136
g41
sg137
g19
sg138
g19
sg139
g41
sg140
g19
sg141
V80
p2681
sg142
V80
p2682
sg143
g19
sg145
g19
sg146
g19
sg148
g19
sg149
g19
sg151
g19
sg152
g116
sg154
g19
sg155
g116
sg156
V12
p2683
sg158
g41
sg160
V24
p2684
sg5
V128
p2685
sg163
g5
sg41
g19
sg164
V34
p2686
sg165
g19
sg166
V27
p2687
sg168
V55
p2688
sg170
V71
p2689
sg172
V55
p2690
sg174
g19
sg176
V27
p2691
sg178
g116
sg179
V34
p2692
sg181
V24
p2693
sg183
g19
sg184
V81
p2694
sg186
g19
sg187
V12
p2695
sg188
V24
p2696
sg190
V15
p2697
sg191
g19
sg193
g19
sg194
V37
p2698
sg196
V16
p2699
sg197
g19
sg199
g41
sg201
g19
sg203
g41
sg205
V27
p2700
sg207
g19
sg209
g19
sg210
g19
sg212
V55
p2701
sg214
g19
sg216
g19
sg218
V53
p2702
sg220
V34
p2703
sg222
V12
p2704
sg224
g19
sg226
V16
p2705
sg228
V27
p2706
sg230
g19
sg232
V31
p2707
sg234
V12
p2708
sg235
V12
p2709
sg237
V27
p2710
sg239
V26
p2711
sg241
V27
p2712
sg243
V20
p2713
sg245
V16
p2714
sg247
V16
p2715
sg249
V53
p2716
sg251
V254
p2717
sg253
V27
p2718
sg255
V16
p2719
sg257
V31
p2720
sg259
V51
p2721
sg261
V27
p2722
sg263
V20
p2723
sg265
V31
p2724
sg267
g19
sg268
V27
p2725
sg270
V24
p2726
sg272
g41
sg273
V27
p2727
sg275
V16
p2728
sg277
V32
p2729
sg279
V12
p2730
sg280
g41
sg282
V94
p2731
sg283
V20
p2732
sg285
g19
sg287
V48
p2733
sg288
g19
sg290
g19
sg291
g19
sg292
V31
p2734
sg294
g41
sg295
g41
sg296
g41
sg297
g19
sg299
g19
sg300
g41
sg302
g19
sg303
g19
sg304
g19
sg305
V48
p2735
sg307
V14
p2736
sg309
g19
sg311
g41
sg312
g19
sg314
g19
sg316
g19
sg318
g19
sg319
V32
p2737
sg321
g19
sg323
g41
sg325
g19
sg326
V53
p2738
sg328
g19
sg330
V27
p2739
sg332
V32
p2740
sg334
V11
p2741
sg336
V27
p2742
sg338
g116
sg339
g41
sg340
g116
sg342
g5
sg343
V34
p2743
sg344
g19
sg345
g5
sg347
V48
p2744
sg348
(lp2745
sg349
g19
sg350
g19
sg352
V34
p2746
sg354
g41
sg355
V24
p2747
sg357
g116
sg358
g116
sg359
g19
sg360
V34
p2748
sg361
g5
sg362
g5
sg363
g116
sg364
g41
sg365
V31
p2749
sg366
g116
sg368
g5
sg369
V66
p2750
sg371
g19
sg373
g19
sg375
g19
sg376
g19
sg377
V20
p2751
sg379
V41
p2752
sg381
g19
sg382
V41
p2753
sg384
V80
p2754
sg34
V10
p2755
sg116
g19
sg388
g66
sg389
V12
p2756
sg391
g5
sg392
V12
p2757
sg394
g19
sg395
V27
p2758
sg397
g41
sg399
V12
p2759
sg401
g19
sg402
V12
p2760
sg403
V12
p2761
sg405
g19
sg406
g41
sg407
g19
sg409
g19
sg410
V11
p2762
sg412
g19
sg413
g19
sg415
V66
p2763
sg416
g19
sg417
V10
p2764
sg418
V110
p2765
sg420
V20
p2766
sg65
V20
p2767
sg423
V27
p2768
sg425
g19
sg426
g5
sg427
V23
p2769
sg429
g5
sg430
V27
p2770
sg432
g19
sg434
V24
p2771
sg436
g19
sg438
V27
p2772
sg440
V34
p2773
sg442
g19
sg443
V34
p2774
sa(dp2775
g2
V27
p2776
sg4
V12
p2777
sg6
V27
p2778
sg8
V12
p2779
sg10
V12
p2780
sg12
V12
p2781
sg14
V27
p2782
sg16
V32
p2783
sg18
g19
sg20
V12
p2784
sg22
V15
p2785
sg24
g5
sg25
V80
p2786
sg27
g19
sg28
g19
sg29
g5
sg30
g5
sg31
V48
p2787
sg33
g116
sg35
g5
sg37
g19
sg38
V31
p2788
sg40
g41
sg42
V12
p2789
sg44
g116
sg46
g5
sg48
V12
p2790
sg50
g116
sg52
V90
p2791
sg54
V12
p2792
sg56
g116
sg57
V27
p2793
sg59
V21
p2794
sg60
g5
sg62
V16
p2795
sg64
g34
sg19
g5
sg66
V34
p2796
sg67
V12
p2797
sg69
g19
sg70
V31
p2798
sg72
V33
p2799
sg73
g19
sg74
V31
p2800
sg76
g116
sg77
V10
p2801
sg79
V32
p2802
sg81
V80
p2803
sg83
V48
p2804
sg84
g19
sg85
g5
sg86
g5
sg87
V31
p2805
sg88
g116
sg89
V41
p2806
sg91
V41
p2807
sg93
V32
p2808
sg95
V188
p2809
sg97
V41
p2810
sg99
V55
p2811
sg100
V41
p2812
sg102
V48
p2813
sg104
V26
p2814
sg106
V51
p2815
sg108
g5
sg110
g116
sg112
g19
sg113
V31
p2816
sg115
g5
sg117
V34
p2817
sg118
g116
sg119
V12
p2818
sg121
V27
p2819
sg123
V48
p2820
sg125
g41
sg126
g41
sg127
V16
p2821
sg129
V34
p2822
sg131
g5
sg132
g5
sg133
g116
sg135
g5
sg136
V12
p2823
sg137
g19
sg138
g5
sg139
g41
sg140
g19
sg141
V80
p2824
sg142
V20
p2825
sg143
g116
sg145
g116
sg146
g19
sg148
g19
sg149
g116
sg151
g116
sg152
g116
sg154
g5
sg155
g116
sg156
V12
p2826
sg158
g41
sg160
V32
p2827
sg5
V233
p2828
sg163
g5
sg41
V105
p2829
sg164
g116
sg165
g19
sg166
V27
p2830
sg168
V55
p2831
sg170
g5
sg172
V55
p2832
sg174
V48
p2833
sg176
V27
p2834
sg178
g116
sg179
V34
p2835
sg181
V24
p2836
sg183
g19
sg184
g5
sg186
g19
sg187
V12
p2837
sg188
V32
p2838
sg190
g5
sg191
g116
sg193
g5
sg194
V32
p2839
sg196
g5
sg197
g116
sg199
g116
sg201
g5
sg203
V12
p2840
sg205
V39
p2841
sg207
g5
sg209
g19
sg210
g5
sg212
V16
p2842
sg214
g19
sg216
g116
sg218
V53
p2843
sg220
V12
p2844
sg222
V12
p2845
sg224
g116
sg226
V16
p2846
sg228
V16
p2847
sg230
V50
p2848
sg232
V97
p2849
sg234
g5
sg235
V12
p2850
sg237
V15
p2851
sg239
V26
p2852
sg241
V27
p2853
sg243
V20
p2854
sg245
V16
p2855
sg247
V16
p2856
sg249
V53
p2857
sg251
V254
p2858
sg253
V23
p2859
sg255
V16
p2860
sg257
V31
p2861
sg259
V51
p2862
sg261
V27
p2863
sg263
V49
p2864
sg265
V31
p2865
sg267
g41
sg268
V27
p2866
sg270
V107
p2867
sg272
g41
sg273
V34
p2868
sg275
V16
p2869
sg277
V32
p2870
sg279
V12
p2871
sg280
V16
p2872
sg282
g116
sg283
V10
p2873
sg285
V11
p2874
sg287
g19
sg288
g19
sg290
g116
sg291
g19
sg292
V14
p2875
sg294
g41
sg295
g41
sg296
g41
sg297
g19
sg299
g19
sg300
V16
p2876
sg302
g19
sg303
g19
sg304
g19
sg305
V47
p2877
sg307
V19
p2878
sg309
g116
sg311
V12
p2879
sg312
g116
sg314
V12
p2880
sg316
V20
p2881
sg318
V20
p2882
sg319
V23
p2883
sg321
g116
sg323
V31
p2884
sg325
g65
sg326
V53
p2885
sg328
g19
sg330
V27
p2886
sg332
V32
p2887
sg334
V11
p2888
sg336
V27
p2889
sg338
g5
sg339
g41
sg340
g116
sg342
g5
sg343
g5
sg344
g19
sg345
V20
p2890
sg347
V48
p2891
sg348
g19
sg349
g5
sg350
g5
sg352
V34
p2892
sg354
g41
sg355
V24
p2893
sg357
g116
sg358
g116
sg359
g19
sg360
g5
sg361
g5
sg362
g5
sg363
g116
sg364
g41
sg365
g41
sg366
g116
sg368
(lp2894
sg369
g116
sg371
g5
sg373
V29
p2895
sg375
V47
p2896
sg376
g19
sg377
V48
p2897
sg379
V41
p2898
sg381
g19
sg382
V41
p2899
sg384
g19
sg34
g116
sg116
V233
p2900
sg388
V11
p2901
sg389
V12
p2902
sg391
g5
sg392
V12
p2903
sg394
g19
sg395
V12
p2904
sg397
V12
p2905
sg399
V27
p2906
sg401
g41
sg402
g5
sg403
V12
p2907
sg405
V48
p2908
sg406
g5
sg407
g19
sg409
g41
sg410
V12
p2909
sg412
g19
sg413
V31
p2910
sg415
g116
sg416
g5
sg417
g34
sg418
g116
sg420
g116
sg65
g5
sg423
V27
p2911
sg425
V48
p2912
sg426
g5
sg427
V32
p2913
sg429
g5
sg430
V34
p2914
sg432
g19
sg434
V16
p2915
sg436
g116
sg438
V27
p2916
sg440
V34
p2917
sg442
V20
p2918
sg443
V34
p2919
sa(dp2920
g2
V27
p2921
sg4
g5
sg6
V27
p2922
sg8
V34
p2923
sg10
V12
p2924
sg12
V12
p2925
sg14
V27
p2926
sg16
V23
p2927
sg18
g19
sg20
V27
p2928
sg22
V16
p2929
sg24
g5
sg25
g19
sg27
g19
sg28
g19
sg29
g19
sg30
g19
sg31
V10
p2930
sg33
g19
sg35
g19
sg37
g19
sg38
g19
sg40
g41
sg42
g5
sg44
g19
sg46
g19
sg48
g5
sg50
g19
sg52
V28
p2931
sg54
V16
p2932
sg56
V34
p2933
sg57
V27
p2934
sg59
g19
sg60
g19
sg62
V16
p2935
sg64
g19
sg19
V167
p2936
sg66
g19
sg67
V23
p2937
sg69
V33
p2938
sg70
g19
sg72
g19
sg73
g19
sg74
g19
sg76
g5
sg77
g19
sg79
V32
p2939
sg81
V80
p2940
sg83
g19
sg84
g19
sg85
g5
sg86
g5
sg87
g19
sg88
g19
sg89
V41
p2941
sg91
V41
p2942
sg93
g19
sg95
V188
p2943
sg97
V41
p2944
sg99
V55
p2945
sg100
V41
p2946
sg102
g19
sg104
V41
p2947
sg106
V51
p2948
sg108
g19
sg110
g5
sg112
g19
sg113
g19
sg115
g5
sg117
g5
sg118
g116
sg119
V12
p2949
sg121
V12
p2950
sg123
V48
p2951
sg125
V31
p2952
sg126
g41
sg127
V16
p2953
sg129
V34
p2954
sg131
g5
sg132
g19
sg133
V10
p2955
sg135
g19
sg136
g5
sg137
g19
sg138
g19
sg139
g41
sg140
g19
sg141
g19
sg142
g19
sg143
g19
sg145
g65
sg146
g19
sg148
g19
sg149
g19
sg151
g19
sg152
V47
p2956
sg154
g19
sg155
g116
sg156
V12
p2957
sg158
g41
sg160
V12
p2958
sg5
g19
sg163
g5
sg41
g19
sg164
g19
sg165
g19
sg166
V15
p2959
sg168
V55
p2960
sg170
V71
p2961
sg172
V16
p2962
sg174
g19
sg176
V27
p2963
sg178
g116
sg179
V34
p2964
sg181
V24
p2965
sg183
g19
sg184
g19
sg186
g19
sg187
g5
sg188
V24
p2966
sg190
V31
p2967
sg191
g19
sg193
g19
sg194
V37
p2968
sg196
V16
p2969
sg197
g19
sg199
V16
p2970
sg201
g19
sg203
V31
p2971
sg205
V32
p2972
sg207
V33
p2973
sg209
g19
sg210
g19
sg212
V55
p2974
sg214
g19
sg216
g19
sg218
V53
p2975
sg220
V12
p2976
sg222
V12
p2977
sg224
V79
p2978
sg226
V16
p2979
sg228
V27
p2980
sg230
g19
sg232
g19
sg234
g5
sg235
V26
p2981
sg237
V26
p2982
sg239
V26
p2983
sg241
V34
p2984
sg243
V49
p2985
sg245
V16
p2986
sg247
V16
p2987
sg249
V255
p2988
sg251
V253
p2989
sg253
V23
p2990
sg255
V16
p2991
sg257
V31
p2992
sg259
V51
p2993
sg261
V27
p2994
sg263
V47
p2995
sg265
V31
p2996
sg267
(lp2997
sg268
V27
p2998
sg270
V15
p2999
sg272
g41
sg273
V34
p3000
sg275
V16
p3001
sg277
V32
p3002
sg279
g41
sg280
V15
p3003
sg282
g19
sg283
V20
p3004
sg285
g19
sg287
g19
sg288
g5
sg290
g19
sg291
g19
sg292
V65
p3005
sg294
g41
sg295
g41
sg296
g41
sg297
g19
sg299
g19
sg300
V15
p3006
sg302
g19
sg303
g19
sg304
g19
sg305
g19
sg307
V142
p3007
sg309
g19
sg311
g19
sg312
g19
sg314
g19
sg316
V95
p3008
sg318
g19
sg319
V32
p3009
sg321
g19
sg323
V15
p3010
sg325
g65
sg326
V53
p3011
sg328
g19
sg330
V27
p3012
sg332
V32
p3013
sg334
V31
p3014
sg336
V27
p3015
sg338
g5
sg339
g19
sg340
g116
sg342
g5
sg343
g5
sg344
g41
sg345
g19
sg347
g5
sg348
g19
sg349
g19
sg350
g19
sg352
V34
p3016
sg354
g41
sg355
V24
p3017
sg357
g116
sg358
g116
sg359
g19
sg360
V71
p3018
sg361
g5
sg362
g116
sg363
g116
sg364
g41
sg365
V31
p3019
sg366
g116
sg368
g116
sg369
V10
p3020
sg371
V110
p3021
sg373
g19
sg375
g19
sg376
g19
sg377
V10
p3022
sg379
V41
p3023
sg381
g41
sg382
V41
p3024
sg384
g5
sg34
g5
sg116
g19
sg388
V11
p3025
sg389
V12
p3026
sg391
g5
sg392
V12
p3027
sg394
g19
sg395
V12
p3028
sg397
V27
p3029
sg399
V27
p3030
sg401
g41
sg402
V12
p3031
sg403
V12
p3032
sg405
g19
sg406
g5
sg407
g19
sg409
g19
sg410
g19
sg412
g19
sg413
g19
sg415
g65
sg416
g19
sg417
g19
sg418
g19
sg420
g19
sg65
g19
sg423
V27
p3033
sg425
g19
sg426
g5
sg427
V23
p3034
sg429
g5
sg430
V34
p3035
sg432
g19
sg434
V16
p3036
sg436
g19
sg438
V27
p3037
sg440
V34
p3038
sg442
g116
sg443
V34
p3039
sa(dp3040
g2
V12
p3041
sg4
V12
p3042
sg6
V27
p3043
sg8
V12
p3044
sg10
V12
p3045
sg12
V12
p3046
sg14
V27
p3047
sg16
V23
p3048
sg18
g19
sg20
V27
p3049
sg22
V16
p3050
sg24
g41
sg25
g19
sg27
g19
sg28
g19
sg29
g19
sg30
g5
sg31
g116
sg33
V47
p3051
sg35
V31
p3052
sg37
g19
sg38
V31
p3053
sg40
g41
sg42
V31
p3054
sg44
V31
p3055
sg46
V31
p3056
sg48
V31
p3057
sg50
g19
sg52
V19
p3058
sg54
V106
p3059
sg56
V31
p3060
sg57
V27
p3061
sg59
V31
p3062
sg60
V77
p3063
sg62
V16
p3064
sg64
g65
sg19
V31
p3065
sg66
V31
p3066
sg67
V23
p3067
sg69
g19
sg70
g41
sg72
g19
sg73
g19
sg74
V31
p3068
sg76
g41
sg77
V47
p3069
sg79
V32
p3070
sg81
V80
p3071
sg83
V31
p3072
sg84
g19
sg85
g5
sg86
g5
sg87
V31
p3073
sg88
V31
p3074
sg89
V58
p3075
sg91
V41
p3076
sg93
V31
p3077
sg95
V41
p3078
sg97
V41
p3079
sg99
V24
p3080
sg100
V41
p3081
sg102
g19
sg104
V188
p3082
sg106
V51
p3083
sg108
V21
p3084
sg110
g5
sg112
g19
sg113
g19
sg115
g5
sg117
V34
p3085
sg118
g116
sg119
V12
p3086
sg121
V12
p3087
sg123
V48
p3088
sg125
(lp3089
sg126
g41
sg127
V16
p3090
sg129
V34
p3091
sg131
g5
sg132
g5
sg133
g116
sg135
V24
p3092
sg136
V31
p3093
sg137
g19
sg138
g19
sg139
g41
sg140
g19
sg141
V80
p3094
sg142
g65
sg143
g65
sg145
V72
p3095
sg146
g19
sg148
g19
sg149
V48
p3096
sg151
g19
sg152
g116
sg154
g5
sg155
g116
sg156
V12
p3097
sg158
g41
sg160
V24
p3098
sg5
V31
p3099
sg163
g5
sg41
V31
p3100
sg164
g5
sg165
g19
sg166
V27
p3101
sg168
V55
p3102
sg170
g5
sg172
V55
p3103
sg174
V47
p3104
sg176
V27
p3105
sg178
g116
sg179
V34
p3106
sg181
V24
p3107
sg183
g19
sg184
g116
sg186
g19
sg187
g41
sg188
V31
p3108
sg190
V31
p3109
sg191
g19
sg193
V19
p3110
sg194
V32
p3111
sg196
V31
p3112
sg197
g19
sg199
V31
p3113
sg201
V196
p3114
sg203
V31
p3115
sg205
V39
p3116
sg207
V47
p3117
sg209
g19
sg210
g19
sg212
V24
p3118
sg214
g19
sg216
V31
p3119
sg218
V253
p3120
sg220
V12
p3121
sg222
V12
p3122
sg224
V31
p3123
sg226
V24
p3124
sg228
V16
p3125
sg230
g41
sg232
V31
p3126
sg234
V24
p3127
sg235
V26
p3128
sg237
V26
p3129
sg239
V26
p3130
sg241
V27
p3131
sg243
V49
p3132
sg245
V16
p3133
sg247
V16
p3134
sg249
V255
p3135
sg251
V253
p3136
sg253
V23
p3137
sg255
V16
p3138
sg257
V31
p3139
sg259
V52
p3140
sg261
V27
p3141
sg263
V47
p3142
sg265
V31
p3143
sg267
g41
sg268
V27
p3144
sg270
V24
p3145
sg272
g41
sg273
V27
p3146
sg275
V16
p3147
sg277
V32
p3148
sg279
g41
sg280
g41
sg282
g41
sg283
V10
p3149
sg285
V31
p3150
sg287
V31
p3151
sg288
V31
p3152
sg290
g65
sg291
g41
sg292
V14
p3153
sg294
g41
sg295
g41
sg296
g41
sg297
g19
sg299
g19
sg300
V24
p3154
sg302
g19
sg303
g19
sg304
g19
sg305
V33
p3155
sg307
V116
p3156
sg309
V31
p3157
sg311
V31
p3158
sg312
g41
sg314
V25
p3159
sg316
V196
p3160
sg318
V31
p3161
sg319
V32
p3162
sg321
V31
p3163
sg323
V11
p3164
sg325
g19
sg326
V54
p3165
sg328
g19
sg330
V27
p3166
sg332
V32
p3167
sg334
V11
p3168
sg336
V27
p3169
sg338
g41
sg339
g41
sg340
g19
sg342
g19
sg343
g5
sg344
g19
sg345
g19
sg347
g116
sg348
g19
sg349
g19
sg350
V31
p3170
sg352
V34
p3171
sg354
g41
sg355
V24
p3172
sg357
g116
sg358
g116
sg359
g19
sg360
g5
sg361
g5
sg362
g116
sg363
g116
sg364
(lp3173
sg365
V31
p3174
sg366
V34
p3175
sg368
g5
sg369
g41
sg371
g19
sg373
g19
sg375
V31
p3176
sg376
g19
sg377
g65
sg379
V41
p3177
sg381
g41
sg382
V41
p3178
sg384
g5
sg34
g19
sg116
V31
p3179
sg388
g41
sg389
V12
p3180
sg391
g5
sg392
V208
p3181
sg394
g19
sg395
V12
p3182
sg397
V27
p3183
sg399
V12
p3184
sg401
g41
sg402
g5
sg403
V27
p3185
sg405
g19
sg406
g5
sg407
g65
sg409
g19
sg410
g41
sg412
g41
sg413
g41
sg415
V95
p3186
sg416
g5
sg417
g19
sg418
V31
p3187
sg420
g19
sg65
V31
p3188
sg423
V27
p3189
sg425
g19
sg426
g5
sg427
V23
p3190
sg429
g5
sg430
V26
p3191
sg432
V29
p3192
sg434
V24
p3193
sg436
V31
p3194
sg438
V27
p3195
sg440
V34
p3196
sg442
V46
p3197
sg443
V34
p3198
sa(dp3199
g2
V27
p3200
sg4
g5
sg6
V27
p3201
sg8
V27
p3202
sg10
V12
p3203
sg12
V12
p3204
sg14
V27
p3205
sg16
V32
p3206
sg18
g19
sg20
V27
p3207
sg22
V32
p3208
sg24
g19
sg25
g19
sg27
g19
sg28
g19
sg29
g5
sg30
g116
sg31
V50
p3209
sg33
g5
sg35
V20
p3210
sg37
g19
sg38
g41
sg40
g41
sg42
V38
p3211
sg44
V38
p3212
sg46
V53
p3213
sg48
V12
p3214
sg50
V16
p3215
sg52
V33
p3216
sg54
V26
p3217
sg56
V38
p3218
sg57
V12
p3219
sg59
V47
p3220
sg60
g19
sg62
V32
p3221
sg64
g19
sg19
V88
p3222
sg66
V12
p3223
sg67
V32
p3224
sg69
V47
p3225
sg70
g41
sg72
g19
sg73
g19
sg74
V47
p3226
sg76
g5
sg77
V20
p3227
sg79
V32
p3228
sg81
V80
p3229
sg83
V48
p3230
sg84
g19
sg85
g5
sg86
V34
p3231
sg87
g19
sg88
V47
p3232
sg89
V58
p3233
sg91
V41
p3234
sg93
V26
p3235
sg95
V41
p3236
sg97
V41
p3237
sg99
V55
p3238
sg100
V26
p3239
sg102
V15
p3240
sg104
V254
p3241
sg106
V51
p3242
sg108
V12
p3243
sg110
V47
p3244
sg112
g19
sg113
V10
p3245
sg115
g5
sg117
g5
sg118
g5
sg119
V12
p3246
sg121
V27
p3247
sg123
V48
p3248
sg125
V31
p3249
sg126
g41
sg127
V16
p3250
sg129
V34
p3251
sg131
g5
sg132
g116
sg133
V49
p3252
sg135
V38
p3253
sg136
g19
sg137
g19
sg138
V109
p3254
sg139
g41
sg140
g19
sg141
V47
p3255
sg142
V20
p3256
sg143
V16
p3257
sg145
V20
p3258
sg146
g19
sg148
g19
sg149
g19
sg151
V47
p3259
sg152
V109
p3260
sg154
g19
sg155
g116
sg156
V12
p3261
sg158
V31
p3262
sg160
V16
p3263
sg5
V32
p3264
sg163
g5
sg41
V13
p3265
sg164
V34
p3266
sg165
g19
sg166
V38
p3267
sg168
V55
p3268
sg170
g5
sg172
V55
p3269
sg174
V12
p3270
sg176
V27
p3271
sg178
g116
sg179
V34
p3272
sg181
V24
p3273
sg183
g19
sg184
g65
sg186
g41
sg187
V12
p3274
sg188
V22
p3275
sg190
V26
p3276
sg191
V33
p3277
sg193
g65
sg194
V37
p3278
sg196
V26
p3279
sg197
V16
p3280
sg199
V26
p3281
sg201
V15
p3282
sg203
V25
p3283
sg205
V38
p3284
sg207
V10
p3285
sg209
g19
sg210
V26
p3286
sg212
V55
p3287
sg214
V10
p3288
sg216
V38
p3289
sg218
V53
p3290
sg220
V12
p3291
sg222
V12
p3292
sg224
V48
p3293
sg226
V32
p3294
sg228
V27
p3295
sg230
V50
p3296
sg232
V31
p3297
sg234
V22
p3298
sg235
V26
p3299
sg237
V12
p3300
sg239
V255
p3301
sg241
V12
p3302
sg243
V20
p3303
sg245
V16
p3304
sg247
V16
p3305
sg249
V255
p3306
sg251
(lp3307
sg253
V27
p3308
sg255
V16
p3309
sg257
V31
p3310
sg259
V52
p3311
sg261
V27
p3312
sg263
V47
p3313
sg265
V31
p3314
sg267
g41
sg268
V27
p3315
sg270
V38
p3316
sg272
g41
sg273
V27
p3317
sg275
V16
p3318
sg277
V32
p3319
sg279
V12
p3320
sg280
V16
p3321
sg282
V109
p3322
sg283
V10
p3323
sg285
V11
p3324
sg287
V48
p3325
sg288
g5
sg290
g19
sg291
g19
sg292
V14
p3326
sg294
g41
sg295
g41
sg296
g41
sg297
g19
sg299
g19
sg300
V12
p3327
sg302
g19
sg303
g19
sg304
g19
sg305
g34
sg307
V31
p3328
sg309
V109
p3329
sg311
V12
p3330
sg312
V26
p3331
sg314
V26
p3332
sg316
V20
p3333
sg318
g19
sg319
V32
p3334
sg321
V12
p3335
sg323
V14
p3336
sg325
g19
sg326
V53
p3337
sg328
g19
sg330
V27
p3338
sg332
V32
p3339
sg334
V11
p3340
sg336
V27
p3341
sg338
g5
sg339
g41
sg340
g19
sg342
V48
p3342
sg343
g116
sg344
g19
sg345
V20
p3343
sg347
g19
sg348
g19
sg349
g5
sg350
V47
p3344
sg352
V34
p3345
sg354
g41
sg355
V24
p3346
sg357
g116
sg358
g116
sg359
g19
sg360
g5
sg361
g5
sg362
g116
sg363
g116
sg364
(lp3347
sg365
V31
p3348
sg366
g116
sg368
g5
sg369
V109
p3349
sg371
V25
p3350
sg373
V20
p3351
sg375
g19
sg376
g19
sg377
V10
p3352
sg379
V41
p3353
sg381
g19
sg382
(lp3354
sg384
V50
p3355
sg34
V47
p3356
sg116
g5
sg388
V11
p3357
sg389
V12
p3358
sg391
g5
sg392
V12
p3359
sg394
g19
sg395
V12
p3360
sg397
V12
p3361
sg399
V12
p3362
sg401
g41
sg402
V12
p3363
sg403
V203
p3364
sg405
g5
sg406
g5
sg407
g19
sg409
V31
p3365
sg410
V11
p3366
sg412
g19
sg413
V31
p3367
sg415
g19
sg416
V47
p3368
sg417
V49
p3369
sg418
V109
p3370
sg420
V47
p3371
sg65
V30
p3372
sg423
V27
p3373
sg425
g19
sg426
g5
sg427
V32
p3374
sg429
g5
sg430
V26
p3375
sg432
g19
sg434
V24
p3376
sg436
V15
p3377
sg438
V27
p3378
sg440
V34
p3379
sg442
g19
sg443
V34
p3380
sa.